	.section	__TEXT,__text,regular,pure_instructions
	.build_version macos, 11, 0	sdk_version 11, 3
	.ptrauth_abi_version 0
	.file	1 "/Applications/Xcode.app/Contents/Developer/Platforms/MacOSX.platform/Developer/SDKs/MacOSX.sdk/usr/include/arm" "_types.h"
	.file	2 "/Applications/Xcode.app/Contents/Developer/Platforms/MacOSX.platform/Developer/SDKs/MacOSX.sdk/usr/include/sys" "_types.h"
	.file	3 "/Applications/Xcode.app/Contents/Developer/Platforms/MacOSX.platform/Developer/SDKs/MacOSX.sdk/usr/include/sys/_types" "_sigset_t.h"
	.file	4 "/Applications/Xcode.app/Contents/Developer/Platforms/MacOSX.platform/Developer/SDKs/MacOSX.sdk/usr/include/_types" "_uint64_t.h"
	.globl	_main                           ; -- Begin function main
	.p2align	2
_main:                                  ; @main
Lfunc_begin0:
	.file	5 "/Users/xss/code" "sprr-srd.c"
	.loc	5 112 0                         ; sprr-srd.c:112:0
	.cfi_startproc
; %bb.0:
	pacibsp
	sub	sp, sp, #128                    ; =128
	stp	x29, x30, [sp, #112]            ; 16-byte Folded Spill
	add	x29, sp, #112                   ; =112
	.cfi_def_cfa w29, 16
	.cfi_offset w30, -8
	.cfi_offset w29, -16
	mov	x8, #0
                                        ; implicit-def: $x16
                                        ; implicit-def: $x17
Ltmp0:
	.loc	5 0 0 prologue_end              ; sprr-srd.c:0:0
	adrp	x16, _bus_handler@PAGE
	add	x16, x16, _bus_handler@PAGEOFF
	paciza	x16
	str	x16, [sp, #56]                  ; 8-byte Folded Spill
                                        ; implicit-def: $x16
                                        ; implicit-def: $x17
	adrp	x16, _sev_handler@PAGE
	add	x16, x16, _sev_handler@PAGEOFF
	paciza	x16
	stur	wzr, [x29, #-4]
	stur	w0, [x29, #-8]
	stur	x1, [x29, #-16]
	sub	x9, x29, #32                    ; =32
	mov	w10, #-1
	.loc	5 117 5                         ; sprr-srd.c:117:5
	stur	w10, [x29, #-24]
	ldr	x11, [sp, #56]                  ; 8-byte Folded Reload
	.loc	5 118 21                        ; sprr-srd.c:118:21
	stur	x11, [x29, #-32]
	mov	w12, #66
	.loc	5 119 17                        ; sprr-srd.c:119:17
	stur	w12, [x29, #-20]
	mov	w0, #10
	.loc	5 120 5                         ; sprr-srd.c:120:5
	mov	x1, x9
	mov	x13, #0
	mov	x2, x13
	str	x8, [sp, #48]                   ; 8-byte Folded Spill
	str	x16, [sp, #40]                  ; 8-byte Folded Spill
	str	x9, [sp, #32]                   ; 8-byte Folded Spill
	str	w10, [sp, #28]                  ; 4-byte Folded Spill
	str	x13, [sp, #16]                  ; 8-byte Folded Spill
	bl	_sigaction
	ldr	x8, [sp, #40]                   ; 8-byte Folded Reload
	.loc	5 121 21                        ; sprr-srd.c:121:21
	stur	x8, [x29, #-32]
	mov	w10, #11
	.loc	5 122 5                         ; sprr-srd.c:122:5
	mov	x0, x10
	ldr	x1, [sp, #32]                   ; 8-byte Folded Reload
	ldr	x2, [sp, #16]                   ; 8-byte Folded Reload
	bl	_sigaction
	ldr	x8, [sp, #16]                   ; 8-byte Folded Reload
	.loc	5 124 21                        ; sprr-srd.c:124:21
	mov	x0, x8
	mov	x1, #16384
	mov	w2, #7
	mov	w3, #6146
	ldr	w4, [sp, #28]                   ; 4-byte Folded Reload
	ldr	x5, [sp, #48]                   ; 8-byte Folded Reload
	bl	_mmap
	.loc	5 124 15 is_stmt 0              ; sprr-srd.c:124:15
	stur	x0, [x29, #-40]
	mov	x0, #3689348814741910323
	.loc	5 126 5 is_stmt 1               ; sprr-srd.c:126:5
	bl	_write_sprr_perm
	.loc	5 127 5                         ; sprr-srd.c:127:5
	ldur	x8, [x29, #-40]
	mov	w10, #960
	movk	w10, #54879, lsl #16
	.loc	5 127 12 is_stmt 0              ; sprr-srd.c:127:12
	str	w10, [x8]
Ltmp1:
	.loc	5 129 14 is_stmt 1              ; sprr-srd.c:129:14
	stur	wzr, [x29, #-44]
LBB0_1:                                 ; =>This Inner Loop Header: Depth=1
Ltmp2:
	.loc	5 129 21 is_stmt 0              ; sprr-srd.c:129:21
	ldur	w8, [x29, #-44]
Ltmp3:
	.loc	5 129 5                         ; sprr-srd.c:129:5
	cmp	w8, #4                          ; =4
	b.ge	LBB0_4
; %bb.2:                                ;   in Loop: Header=BB0_1 Depth=1
Ltmp4:
	.loc	5 130 19 is_stmt 1              ; sprr-srd.c:130:19
	ldur	x0, [x29, #-40]
	.loc	5 130 38 is_stmt 0              ; sprr-srd.c:130:38
	ldur	w8, [x29, #-44]
	.loc	5 130 24                        ; sprr-srd.c:130:24
	and	w8, w8, #0xff
	str	x0, [sp, #8]                    ; 8-byte Folded Spill
	mov	x0, x8
	bl	_make_sprr_val
	ldr	x9, [sp, #8]                    ; 8-byte Folded Reload
	str	x0, [sp]                        ; 8-byte Folded Spill
	.loc	5 130 9                         ; sprr-srd.c:130:9
	mov	x0, x9
	ldr	x1, [sp]                        ; 8-byte Folded Reload
	bl	_sprr_test
; %bb.3:                                ;   in Loop: Header=BB0_1 Depth=1
	.loc	5 129 28 is_stmt 1              ; sprr-srd.c:129:28
	ldur	w8, [x29, #-44]
	add	w8, w8, #1                      ; =1
	stur	w8, [x29, #-44]
	.loc	5 129 5 is_stmt 0               ; sprr-srd.c:129:5
	b	LBB0_1
Ltmp5:
LBB0_4:
	.loc	5 131 1 is_stmt 1               ; sprr-srd.c:131:1
	ldur	w0, [x29, #-4]
	ldp	x29, x30, [sp, #112]            ; 16-byte Folded Reload
	add	sp, sp, #128                    ; =128
	retab
Ltmp6:
Lfunc_end0:
	.cfi_endproc
                                        ; -- End function
	.p2align	2                               ; -- Begin function bus_handler
_bus_handler:                           ; @bus_handler
Lfunc_begin1:
	.loc	5 29 0                          ; sprr-srd.c:29:0
	.cfi_startproc
; %bb.0:
	sub	sp, sp, #32                     ; =32
	.cfi_def_cfa_offset 32
	str	w0, [sp, #28]
	str	x1, [sp, #16]
	str	x2, [sp, #8]
Ltmp8:
	.loc	5 32 22 prologue_end            ; sprr-srd.c:32:22
	ldr	x8, [sp, #8]
	.loc	5 32 17 is_stmt 0               ; sprr-srd.c:32:17
	str	x8, [sp]
	.loc	5 33 5 is_stmt 1                ; sprr-srd.c:33:5
	ldr	x8, [sp]
	.loc	5 33 9 is_stmt 0                ; sprr-srd.c:33:9
	ldr	x8, [x8, #48]
	mov	x9, #48879
	movk	x9, #57005, lsl #16
	.loc	5 33 34                         ; sprr-srd.c:33:34
	str	x9, [x8, #16]
	.loc	5 34 5 is_stmt 1                ; sprr-srd.c:34:5
	ldr	x8, [sp]
	.loc	5 34 9 is_stmt 0                ; sprr-srd.c:34:9
	ldr	x8, [x8, #48]
	.loc	5 34 39                         ; sprr-srd.c:34:39
	ldr	x9, [x8, #272]
	add	x9, x9, #4                      ; =4
	str	x9, [x8, #272]
	.loc	5 35 1 is_stmt 1                ; sprr-srd.c:35:1
	add	sp, sp, #32                     ; =32
	ret
Ltmp9:
Lfunc_end1:
	.cfi_endproc
                                        ; -- End function
	.p2align	2                               ; -- Begin function sev_handler
_sev_handler:                           ; @sev_handler
Lfunc_begin2:
	.loc	5 20 0                          ; sprr-srd.c:20:0
	.cfi_startproc
; %bb.0:
	sub	sp, sp, #32                     ; =32
	.cfi_def_cfa_offset 32
	str	w0, [sp, #28]
	str	x1, [sp, #16]
	str	x2, [sp, #8]
Ltmp11:
	.loc	5 23 22 prologue_end            ; sprr-srd.c:23:22
	ldr	x8, [sp, #8]
	.loc	5 23 17 is_stmt 0               ; sprr-srd.c:23:17
	str	x8, [sp]
	.loc	5 24 5 is_stmt 1                ; sprr-srd.c:24:5
	ldr	x8, [sp]
	.loc	5 24 9 is_stmt 0                ; sprr-srd.c:24:9
	ldr	x8, [x8, #48]
	mov	x9, #48879
	movk	x9, #57005, lsl #16
	.loc	5 24 34                         ; sprr-srd.c:24:34
	str	x9, [x8, #16]
	.loc	5 25 41 is_stmt 1               ; sprr-srd.c:25:41
	ldr	x8, [sp]
	.loc	5 25 45 is_stmt 0               ; sprr-srd.c:25:45
	ldr	x8, [x8, #48]
	.loc	5 25 63                         ; sprr-srd.c:25:63
	ldr	x8, [x8, #256]
	.loc	5 25 5                          ; sprr-srd.c:25:5
	ldr	x9, [sp]
	.loc	5 25 9                          ; sprr-srd.c:25:9
	ldr	x9, [x9, #48]
	.loc	5 25 39                         ; sprr-srd.c:25:39
	str	x8, [x9, #272]
	.loc	5 26 1 is_stmt 1                ; sprr-srd.c:26:1
	add	sp, sp, #32                     ; =32
	ret
Ltmp12:
Lfunc_end2:
	.cfi_endproc
                                        ; -- End function
	.p2align	2                               ; -- Begin function write_sprr_perm
_write_sprr_perm:                       ; @write_sprr_perm
Lfunc_begin3:
	.loc	5 38 0                          ; sprr-srd.c:38:0
	.cfi_startproc
; %bb.0:
	sub	sp, sp, #16                     ; =16
	.cfi_def_cfa_offset 16
	str	x0, [sp, #8]
Ltmp14:
	.loc	5 40 43 prologue_end            ; sprr-srd.c:40:43
	ldr	x8, [sp, #8]
	.loc	5 39 5                          ; sprr-srd.c:39:5
	; InlineAsm Start
	msr	S3_6_C15_C1_5, x8
	isb

	; InlineAsm End
	.loc	5 42 1                          ; sprr-srd.c:42:1
	add	sp, sp, #16                     ; =16
	ret
Ltmp15:
Lfunc_end3:
	.cfi_endproc
                                        ; -- End function
	.p2align	2                               ; -- Begin function sprr_test
_sprr_test:                             ; @sprr_test
Lfunc_begin4:
	.loc	5 93 0                          ; sprr-srd.c:93:0
	.cfi_startproc
; %bb.0:
	pacibsp
	sub	sp, sp, #112                    ; =112
	stp	x29, x30, [sp, #96]             ; 16-byte Folded Spill
	add	x29, sp, #96                    ; =96
	.cfi_def_cfa w29, 16
	.cfi_offset w30, -8
	.cfi_offset w29, -16
	stur	x0, [x29, #-8]
	stur	x1, [x29, #-16]
Ltmp16:
	.loc	5 95 9 prologue_end             ; sprr-srd.c:95:9
	bl	_read_sprr_perm
	.loc	5 95 7 is_stmt 0                ; sprr-srd.c:95:7
	stur	x0, [x29, #-24]
	.loc	5 96 21 is_stmt 1               ; sprr-srd.c:96:21
	ldur	x0, [x29, #-16]
	.loc	5 96 5 is_stmt 0                ; sprr-srd.c:96:5
	bl	_write_sprr_perm
	.loc	5 97 9 is_stmt 1                ; sprr-srd.c:97:9
	bl	_read_sprr_perm
	.loc	5 97 7 is_stmt 0                ; sprr-srd.c:97:7
	stur	x0, [x29, #-32]
	.loc	5 99 30 is_stmt 1               ; sprr-srd.c:99:30
	ldur	x8, [x29, #-32]
	.loc	5 99 42 is_stmt 0               ; sprr-srd.c:99:42
	ldur	x0, [x29, #-8]
	stur	x8, [x29, #-40]                 ; 8-byte Folded Spill
	.loc	5 99 33                         ; sprr-srd.c:99:33
	bl	_can_read
	mov	w9, #45
	mov	w10, #114
	tst	w0, #0x1
	csel	w10, w10, w9, ne
	.loc	5 99 70                         ; sprr-srd.c:99:70
	ldur	x0, [x29, #-8]
	stur	w9, [x29, #-44]                 ; 4-byte Folded Spill
	str	w10, [sp, #48]                  ; 4-byte Folded Spill
	.loc	5 99 60                         ; sprr-srd.c:99:60
	bl	_can_write
	mov	w9, #119
	tst	w0, #0x1
	ldur	w10, [x29, #-44]                ; 4-byte Folded Reload
	csel	w9, w9, w10, ne
	.loc	5 100 21 is_stmt 1              ; sprr-srd.c:100:21
	ldur	x0, [x29, #-8]
	str	w9, [sp, #44]                   ; 4-byte Folded Spill
	.loc	5 100 12 is_stmt 0              ; sprr-srd.c:100:12
	bl	_can_exec
	mov	w9, #120
	tst	w0, #0x1
	ldur	w10, [x29, #-44]                ; 4-byte Folded Reload
	csel	w9, w9, w10, ne
	.loc	5 0 0                           ; sprr-srd.c:0:0
	adrp	x0, l_.str@PAGE
	add	x0, x0, l_.str@PAGEOFF
	.loc	5 99 5 is_stmt 1                ; sprr-srd.c:99:5
	mov	x8, sp
	ldur	x11, [x29, #-40]                ; 8-byte Folded Reload
	str	x11, [x8]
                                        ; implicit-def: $x1
	ldr	w12, [sp, #48]                  ; 4-byte Folded Reload
	mov	x1, x12
	str	x1, [x8, #8]
                                        ; implicit-def: $x1
	ldr	w13, [sp, #44]                  ; 4-byte Folded Reload
	mov	x1, x13
	str	x1, [x8, #16]
                                        ; implicit-def: $x1
	mov	x1, x9
	str	x1, [x8, #24]
	bl	_printf
	.loc	5 101 1                         ; sprr-srd.c:101:1
	ldp	x29, x30, [sp, #96]             ; 16-byte Folded Reload
	add	sp, sp, #112                    ; =112
	retab
Ltmp17:
Lfunc_end4:
	.cfi_endproc
                                        ; -- End function
	.p2align	2                               ; -- Begin function make_sprr_val
_make_sprr_val:                         ; @make_sprr_val
Lfunc_begin5:
	.loc	5 104 0                         ; sprr-srd.c:104:0
	.cfi_startproc
; %bb.0:
	sub	sp, sp, #32                     ; =32
	.cfi_def_cfa_offset 32
	strb	w0, [sp, #31]
Ltmp19:
	.loc	5 105 14 prologue_end           ; sprr-srd.c:105:14
	str	xzr, [sp, #16]
Ltmp20:
	.loc	5 106 14                        ; sprr-srd.c:106:14
	str	wzr, [sp, #12]
LBB5_1:                                 ; =>This Inner Loop Header: Depth=1
Ltmp21:
	.loc	5 106 21 is_stmt 0              ; sprr-srd.c:106:21
	ldr	w8, [sp, #12]
Ltmp22:
	.loc	5 106 5                         ; sprr-srd.c:106:5
	cmp	w8, #16                         ; =16
	b.ge	LBB5_4
; %bb.2:                                ;   in Loop: Header=BB5_1 Depth=1
Ltmp23:
	.loc	5 107 27 is_stmt 1              ; sprr-srd.c:107:27
	ldrb	w8, [sp, #31]
	mov	x9, x8
	.loc	5 107 43 is_stmt 0              ; sprr-srd.c:107:43
	ldr	w8, [sp, #12]
	mov	w10, #4
	.loc	5 107 41                        ; sprr-srd.c:107:41
	mul	w8, w10, w8
	.loc	5 107 35                        ; sprr-srd.c:107:35
	mov	x11, x8
	lsl	x9, x9, x11
	.loc	5 107 13                        ; sprr-srd.c:107:13
	ldr	x11, [sp, #16]
	orr	x9, x11, x9
	str	x9, [sp, #16]
; %bb.3:                                ;   in Loop: Header=BB5_1 Depth=1
	.loc	5 106 29 is_stmt 1              ; sprr-srd.c:106:29
	ldr	w8, [sp, #12]
	add	w8, w8, #1                      ; =1
	str	w8, [sp, #12]
	.loc	5 106 5 is_stmt 0               ; sprr-srd.c:106:5
	b	LBB5_1
Ltmp24:
LBB5_4:
	.loc	5 108 12 is_stmt 1              ; sprr-srd.c:108:12
	ldr	x0, [sp, #16]
	.loc	5 108 5 is_stmt 0               ; sprr-srd.c:108:5
	add	sp, sp, #32                     ; =32
	ret
Ltmp25:
Lfunc_end5:
	.cfi_endproc
                                        ; -- End function
	.p2align	2                               ; -- Begin function read_sprr_perm
_read_sprr_perm:                        ; @read_sprr_perm
Lfunc_begin6:
	.loc	5 45 0 is_stmt 1                ; sprr-srd.c:45:0
	.cfi_startproc
; %bb.0:
	sub	sp, sp, #16                     ; =16
	.cfi_def_cfa_offset 16
Ltmp27:
	.loc	5 47 5 prologue_end             ; sprr-srd.c:47:5
	; InlineAsm Start
	isb
	mrs	x8, S3_6_C15_C1_5

	; InlineAsm End
	str	x8, [sp, #8]
	.loc	5 50 12                         ; sprr-srd.c:50:12
	ldr	x0, [sp, #8]
	.loc	5 50 5 is_stmt 0                ; sprr-srd.c:50:5
	add	sp, sp, #16                     ; =16
	ret
Ltmp28:
Lfunc_end6:
	.cfi_endproc
                                        ; -- End function
	.p2align	2                               ; -- Begin function can_read
_can_read:                              ; @can_read
Lfunc_begin7:
	.loc	5 54 0 is_stmt 1                ; sprr-srd.c:54:0
	.cfi_startproc
; %bb.0:
	sub	sp, sp, #32                     ; =32
	.cfi_def_cfa_offset 32
	str	x0, [sp, #16]
Ltmp30:
	.loc	5 55 14 prologue_end            ; sprr-srd.c:55:14
	str	xzr, [sp, #8]
	.loc	5 60 32                         ; sprr-srd.c:60:32
	ldr	x8, [sp, #16]
	.loc	5 57 5                          ; sprr-srd.c:57:5
	; InlineAsm Start
	ldr	x0, [x8]
	mov	x8, x0

	; InlineAsm End
	str	x8, [sp, #8]
Ltmp31:
	.loc	5 63 9                          ; sprr-srd.c:63:9
	ldr	x8, [sp, #8]
	mov	x9, #48879
	movk	x9, #57005, lsl #16
Ltmp32:
	.loc	5 63 9 is_stmt 0                ; sprr-srd.c:63:9
	subs	x8, x8, x9
	b.ne	LBB7_2
; %bb.1:
	.loc	5 0 9                           ; sprr-srd.c:0:9
	mov	w8, #0
Ltmp33:
	.loc	5 64 9 is_stmt 1                ; sprr-srd.c:64:9
	and	w8, w8, #0x1
	strb	w8, [sp, #31]
	b	LBB7_3
Ltmp34:
LBB7_2:
	.loc	5 0 9 is_stmt 0                 ; sprr-srd.c:0:9
	mov	w8, #1
	.loc	5 65 5 is_stmt 1                ; sprr-srd.c:65:5
	and	w8, w8, #0x1
	strb	w8, [sp, #31]
LBB7_3:
	.loc	5 66 1                          ; sprr-srd.c:66:1
	ldrb	w8, [sp, #31]
	and	w0, w8, #0x1
	add	sp, sp, #32                     ; =32
	ret
Ltmp35:
Lfunc_end7:
	.cfi_endproc
                                        ; -- End function
	.p2align	2                               ; -- Begin function can_write
_can_write:                             ; @can_write
Lfunc_begin8:
	.loc	5 69 0                          ; sprr-srd.c:69:0
	.cfi_startproc
; %bb.0:
	sub	sp, sp, #32                     ; =32
	.cfi_def_cfa_offset 32
	str	x0, [sp, #16]
Ltmp37:
	.loc	5 70 14 prologue_end            ; sprr-srd.c:70:14
	str	xzr, [sp, #8]
	.loc	5 75 32                         ; sprr-srd.c:75:32
	ldr	x8, [sp, #16]
	.loc	5 75 36 is_stmt 0               ; sprr-srd.c:75:36
	add	x8, x8, #8                      ; =8
	.loc	5 72 5 is_stmt 1                ; sprr-srd.c:72:5
	; InlineAsm Start
	str	x0, [x8]
	mov	x8, x0

	; InlineAsm End
	str	x8, [sp, #8]
Ltmp38:
	.loc	5 78 9                          ; sprr-srd.c:78:9
	ldr	x8, [sp, #8]
	mov	x9, #48879
	movk	x9, #57005, lsl #16
Ltmp39:
	.loc	5 78 9 is_stmt 0                ; sprr-srd.c:78:9
	subs	x8, x8, x9
	b.ne	LBB8_2
; %bb.1:
	.loc	5 0 9                           ; sprr-srd.c:0:9
	mov	w8, #0
Ltmp40:
	.loc	5 79 9 is_stmt 1                ; sprr-srd.c:79:9
	and	w8, w8, #0x1
	strb	w8, [sp, #31]
	b	LBB8_3
Ltmp41:
LBB8_2:
	.loc	5 0 9 is_stmt 0                 ; sprr-srd.c:0:9
	mov	w8, #1
	.loc	5 80 5 is_stmt 1                ; sprr-srd.c:80:5
	and	w8, w8, #0x1
	strb	w8, [sp, #31]
LBB8_3:
	.loc	5 81 1                          ; sprr-srd.c:81:1
	ldrb	w8, [sp, #31]
	and	w0, w8, #0x1
	add	sp, sp, #32                     ; =32
	ret
Ltmp42:
Lfunc_end8:
	.cfi_endproc
                                        ; -- End function
	.p2align	2                               ; -- Begin function can_exec
_can_exec:                              ; @can_exec
Lfunc_begin9:
	.loc	5 84 0                          ; sprr-srd.c:84:0
	.cfi_startproc
; %bb.0:
	pacibsp
	sub	sp, sp, #48                     ; =48
	stp	x29, x30, [sp, #32]             ; 16-byte Folded Spill
	add	x29, sp, #32                    ; =32
	.cfi_def_cfa w29, 16
	.cfi_offset w30, -8
	.cfi_offset w29, -16
	str	x0, [sp, #16]
Ltmp43:
	.loc	5 85 37 prologue_end            ; sprr-srd.c:85:37
	ldr	x8, [sp, #16]
	.loc	5 85 16 is_stmt 0               ; sprr-srd.c:85:16
	str	x8, [sp, #8]
	.loc	5 86 20 is_stmt 1               ; sprr-srd.c:86:20
	ldr	x8, [sp, #8]
	mov	x9, #0
	mov	x0, x9
	blraaz	x8
	.loc	5 86 14 is_stmt 0               ; sprr-srd.c:86:14
	str	x0, [sp]
Ltmp44:
	.loc	5 87 9 is_stmt 1                ; sprr-srd.c:87:9
	ldr	x8, [sp]
	mov	x9, #48879
	movk	x9, #57005, lsl #16
Ltmp45:
	.loc	5 87 9 is_stmt 0                ; sprr-srd.c:87:9
	subs	x8, x8, x9
	b.ne	LBB9_2
; %bb.1:
	.loc	5 0 9                           ; sprr-srd.c:0:9
	mov	w8, #0
Ltmp46:
	.loc	5 88 9 is_stmt 1                ; sprr-srd.c:88:9
	and	w8, w8, #0x1
	sturb	w8, [x29, #-1]
	b	LBB9_3
Ltmp47:
LBB9_2:
	.loc	5 0 9 is_stmt 0                 ; sprr-srd.c:0:9
	mov	w8, #1
	.loc	5 89 5 is_stmt 1                ; sprr-srd.c:89:5
	and	w8, w8, #0x1
	sturb	w8, [x29, #-1]
LBB9_3:
	.loc	5 90 1                          ; sprr-srd.c:90:1
	ldurb	w8, [x29, #-1]
	and	w0, w8, #0x1
	ldp	x29, x30, [sp, #32]             ; 16-byte Folded Reload
	add	sp, sp, #48                     ; =48
	retab
Ltmp48:
Lfunc_end9:
	.cfi_endproc
                                        ; -- End function
	.section	__TEXT,__cstring,cstring_literals
l_.str:                                 ; @.str
	.asciz	"%llx: %c%c%c\n"

	.file	6 "/Applications/Xcode.app/Contents/Developer/Platforms/MacOSX.platform/Developer/SDKs/MacOSX.sdk/usr/include/sys" "signal.h"
	.file	7 "/Applications/Xcode.app/Contents/Developer/Platforms/MacOSX.platform/Developer/SDKs/MacOSX.sdk/usr/include/sys/_types" "_pid_t.h"
	.file	8 "/Applications/Xcode.app/Contents/Developer/Platforms/MacOSX.platform/Developer/SDKs/MacOSX.sdk/usr/include/sys/_types" "_uid_t.h"
	.file	9 "/Applications/Xcode.app/Contents/Developer/Platforms/MacOSX.platform/Developer/SDKs/MacOSX.sdk/usr/include/_types" "_uint32_t.h"
	.file	10 "/Applications/Xcode.app/Contents/Developer/Platforms/MacOSX.platform/Developer/SDKs/MacOSX.sdk/usr/include/sys/_types" "_ucontext.h"
	.file	11 "/Applications/Xcode.app/Contents/Developer/Platforms/MacOSX.platform/Developer/SDKs/MacOSX.sdk/usr/include/sys/_types" "_sigaltstack.h"
	.file	12 "/Applications/Xcode.app/Contents/Developer/Platforms/MacOSX.platform/Developer/SDKs/MacOSX.sdk/usr/include/mach/arm" "_structs.h"
	.file	13 "/Applications/Xcode.app/Contents/Developer/Platforms/MacOSX.platform/Developer/SDKs/MacOSX.sdk/usr/include/arm" "_mcontext.h"
	.file	14 "/Applications/Xcode.app/Contents/Developer/Platforms/MacOSX.platform/Developer/SDKs/MacOSX.sdk/usr/include/_types" "_uint8_t.h"