==========================================
cryptex-run
==========================================
                 U ___error
0000000100007dbc t ___os_log_helper_16_0_0
0000000100007d7c t ___os_log_helper_16_2_1_8_32
0000000100007dd8 t ___os_log_helper_16_2_2_8_32_8_32
                 U ___stack_chk_fail
                 U ___stack_chk_guard
                 U ___stderrp
0000000100000000 T __mh_execute_header
                 U __os_log_error_impl
                 U __os_log_impl
                 U _asprintf
                 U _execvP
                 U _exit
                 U _fprintf
                 U _getenv
00000001000079c0 T _main
                 U _os_log_create
                 U _os_log_type_enabled
                 U _setenv
                 U _strerror
==========================================
debugserver
==========================================

com.example.cryptex.dstroot/usr/bin/debugserver (for architecture arm64):
000000010005e2f0 s GCC_except_table0
000000010005e428 s GCC_except_table0
000000010005f124 s GCC_except_table1
000000010005f148 s GCC_except_table1
000000010005e3f4 s GCC_except_table10
000000010005ec80 s GCC_except_table104
000000010005ec94 s GCC_except_table109
000000010005ecd8 s GCC_except_table110
000000010005ecec s GCC_except_table111
000000010005ed04 s GCC_except_table112
000000010005ed34 s GCC_except_table113
000000010005ed94 s GCC_except_table116
000000010005edc4 s GCC_except_table117
000000010005e510 s GCC_except_table12
000000010005e404 s GCC_except_table14
000000010005ef78 s GCC_except_table14
000000010005e418 s GCC_except_table15
000000010005ef8c s GCC_except_table15
000000010005edf4 s GCC_except_table168
000000010005efa0 s GCC_except_table17
000000010005f138 s GCC_except_table17
000000010005ee38 s GCC_except_table174
000000010005ee74 s GCC_except_table176
000000010005ee94 s GCC_except_table179
000000010005e524 s GCC_except_table18
000000010005eeac s GCC_except_table181
000000010005eebc s GCC_except_table187
000000010005f07c s GCC_except_table19
000000010005eecc s GCC_except_table194
000000010005eee4 s GCC_except_table195
000000010005ef00 s GCC_except_table196
000000010005ef1c s GCC_except_table198
000000010005f158 s GCC_except_table21
000000010005f0a0 s GCC_except_table24
000000010005f108 s GCC_except_table25
000000010005e538 s GCC_except_table28
000000010005e5b0 s GCC_except_table29
000000010005e6a4 s GCC_except_table33
000000010005e6e4 s GCC_except_table37
000000010005e700 s GCC_except_table38
000000010005e728 s GCC_except_table39
000000010005e3a4 s GCC_except_table4
000000010005e75c s GCC_except_table40
000000010005e7b8 s GCC_except_table53
000000010005f168 s GCC_except_table53
000000010005e7ec s GCC_except_table56
000000010005e844 s GCC_except_table59
000000010005e86c s GCC_except_table61
000000010005e888 s GCC_except_table62
000000010005e8b0 s GCC_except_table63
000000010005e8fc s GCC_except_table64
000000010005e934 s GCC_except_table65
000000010005e950 s GCC_except_table66
000000010005e4c4 s GCC_except_table7
000000010005ef3c s GCC_except_table7
000000010005e980 s GCC_except_table71
000000010005e9b8 s GCC_except_table72
000000010005e9f8 s GCC_except_table73
000000010005e3c0 s GCC_except_table8
000000010005e4f4 s GCC_except_table8
000000010005ef4c s GCC_except_table8
000000010005ea20 s GCC_except_table81
000000010005ea60 s GCC_except_table82
000000010005ead4 s GCC_except_table87
000000010005eafc s GCC_except_table88
000000010005e3d8 s GCC_except_table9
000000010005ef5c s GCC_except_table9
000000010005eb28 s GCC_except_table90
000000010005eb68 s GCC_except_table91
000000010005eb98 s GCC_except_table92
000000010005ebdc s GCC_except_table96
000000010005ec60 s GCC_except_table98
                 U _BKSActivateForEventOptionTypeBackgroundContentFetching
                 U _BKSDebugOptionKeyArguments
                 U _BKSDebugOptionKeyCancelDebugOnNextLaunch
                 U _BKSDebugOptionKeyDisableASLR
                 U _BKSDebugOptionKeyEnvironment
                 U _BKSDebugOptionKeyStandardErrorPath
                 U _BKSDebugOptionKeyStandardOutPath
                 U _BKSDebugOptionKeyWaitForDebugger
                 U _BKSOpenApplicationErrorCodeToString
                 U _BKSOpenApplicationOptionKeyActivateForEvent
                 U _BKSOpenApplicationOptionKeyActivateSuspended
                 U _BKSOpenApplicationOptionKeyDebuggingOptions
                 U _BKSOpenApplicationOptionKeyUnlockDevice
                 U _BKSWatchdogAssertionCreateForPID
                 U _CFArrayAppendValue
                 U _CFArrayCreateMutable
                 U _CFArrayGetCount
                 U _CFArrayGetValueAtIndex
                 U _CFBundleCopyExecutableURL
                 U _CFBundleCreate
                 U _CFBundleGetIdentifier
                 U _CFDataGetBytePtr
                 U _CFDataGetLength
                 U _CFDictionaryCreateMutable
                 U _CFDictionarySetValue
                 U _CFNumberCreate
                 U _CFPropertyListCreateXMLData
                 U _CFRelease
                 U _CFRetain
                 U _CFStringCompare
                 U _CFStringCreateWithCString
                 U _CFStringCreateWithFileSystemRepresentation
                 U _CFStringGetCString
                 U _CFStringGetLength
                 U _CFStringGetMaximumSizeForEncoding
                 U _CFURLCreateWithFileSystemPath
                 U _CFURLGetFileSystemRepresentation
0000000100012f44 T _DNBLogCheckLogBit
0000000100012f8c T _DNBLogEnabled
0000000100012fa0 T _DNBLogEnabledForAny
0000000100012f80 T _DNBLogGetLogCallback
0000000100012f2c T _DNBLogSetDebug
0000000100012f6c T _DNBLogSetLogCallback
0000000100012f58 T _DNBLogSetLogMask
0000000100012f38 T _DNBLogSetVerbose
                 U _DVTSecureSocketProxy_Create
                 U _FBSActivateForEventOptionTypeBackgroundContentFetching
                 U _FBSDebugOptionKeyArguments
                 U _FBSDebugOptionKeyCancelDebugOnNextLaunch
                 U _FBSDebugOptionKeyDebugOnNextLaunch
                 U _FBSDebugOptionKeyDisableASLR
                 U _FBSDebugOptionKeyEnvironment
                 U _FBSDebugOptionKeyStandardErrorPath
                 U _FBSDebugOptionKeyStandardOutPath
                 U _FBSDebugOptionKeyWaitForDebugger
                 U _FBSOpenApplicationErrorCodeToString
                 U _FBSOpenApplicationOptionKeyActivateForEvent
                 U _FBSOpenApplicationOptionKeyActivateSuspended
                 U _FBSOpenApplicationOptionKeyDebuggingOptions
                 U _FBSOpenApplicationOptionKeyLSCacheGUID
                 U _FBSOpenApplicationOptionKeyLSSequenceNumber
                 U _FBSOpenApplicationOptionKeyUnlockDevice
                 U _NDR_record
                 U _OBJC_CLASS_$_BKSApplicationStateMonitor
                 U _OBJC_CLASS_$_BKSSystemService
                 U _OBJC_CLASS_$_FBSSystemService
                 U _OBJC_CLASS_$_LSApplicationProxy
                 U _OBJC_CLASS_$_NSAutoreleasePool
                 U _OBJC_CLASS_$_NSDictionary
                 U _OBJC_CLASS_$_NSFileManager
                 U _OBJC_CLASS_$_NSMutableArray
                 U _OBJC_CLASS_$_NSMutableDictionary
                 U _OBJC_CLASS_$_NSNumber
                 U _OBJC_CLASS_$_NSProcessInfo
                 U _OBJC_CLASS_$_NSString
                 U _OBJC_CLASS_$_NSURL
000000010000c2b8 t _OUTLINED_FUNCTION_0
0000000100043a40 t _OUTLINED_FUNCTION_0
0000000100043a50 t _OUTLINED_FUNCTION_1
0000000100043ac8 t _OUTLINED_FUNCTION_10
0000000100043a5c t _OUTLINED_FUNCTION_2
0000000100043a6c t _OUTLINED_FUNCTION_3
0000000100043a7c t _OUTLINED_FUNCTION_4
0000000100043a84 t _OUTLINED_FUNCTION_5
0000000100043a98 t _OUTLINED_FUNCTION_6
0000000100043aac t _OUTLINED_FUNCTION_7
0000000100043ab4 t _OUTLINED_FUNCTION_8
0000000100043ac0 t _OUTLINED_FUNCTION_9
                 U _SBSCopyApplicationDisplayIdentifiers
                 U _SBSCopyExecutablePathForDisplayIdentifier
                 U _SBSCopyFrontmostApplicationDisplayIdentifier
                 U _SBSCopyIconImagePathForDisplayIdentifier
                 U _SBSCopyLocalizedApplicationNameForDisplayIdentifier
                 U _SBSProcessIDForDisplayIdentifier
                 U __Block_object_assign
                 U __Block_object_dispose
0000000100012fc8 T __DNBLog
00000001000130e0 T __DNBLogDebug
000000010001333c T __DNBLogError
0000000100013208 T __DNBLogThreaded
00000001000133a0 T __DNBLogWarning
                 U __DefaultRuneLocale
000000010000c6a4 t __GLOBAL__sub_I_DNBArch.cpp
0000000100031abc t __GLOBAL__sub_I_RNBRemote.cpp
000000010000c2c0 t __GLOBAL__sub_I_debugserver.cpp
                 U __NSConcreteStackBlock
                 U __NSGetEnviron
                 U __Unwind_Resume
000000010004ae08 t __Xmach_exception_raise
000000010004aed4 t __Xmach_exception_raise_state
000000010004aff0 t __Xmach_exception_raise_state_identity
000000010002b3f8 T __Z11set_loggingPKc
0000000100031b7c T __Z12GetProcessesP9__CFArrayb
0000000100011c54 T __Z13DNBInitializev
000000010002d56c T __Z13XMLElementEndRNSt3__119basic_ostringstreamIcNS_11char_traitsIcEENS_9allocatorIcEEEEjPKc
000000010000d064 T __Z13kqueue_threadPv
0000000100009954 T __Z14ASLLogCallbackPvjPKcPc
000000010000e6c8 T __Z14DNBGetAllInfosRNSt3__16vectorI10kinfo_procNS_9allocatorIS1_EEEE
000000010000f658 T __Z14DNBGetPThreadTiy
000000010000ec78 T __Z14DNBProcessKilli
00000001000092d8 T __Z14signal_handleri
0000000100009a40 T __Z15FileLogCallbackPvjPKcPc
000000010002e54c T __Z15UpdateTargetXMLv
000000010002d454 T __Z15XMLElementStartRNSt3__119basic_ostringstreamIcNS_11char_traitsIcEENS_9allocatorIcEEEEjPKcb
0000000100049af4 T __Z15get_dirty_pagesjyy
000000010000fd34 T __Z16DNBBreakpointSetiymj
000000010000df6c T __Z16DNBProcessAttachiP8timespecbPcm
0000000100050aa0 t __Z16DNBProcessAttachiP8timespecbPcm.cold.1
000000010000eb70 T __Z16DNBProcessDetachi
000000010000d480 T __Z16DNBProcessLaunchP10RNBContextPKcPS2_S3_S2_S2_S2_S2_biS2_Pcm
000000010000fbe4 T __Z16DNBProcessResumeiPK21DNBThreadResumeActionm
000000010000ed4c T __Z16DNBProcessSignalii
000000010000e5e0 T __Z16DNBStateAsString11nub_state_t
0000000100010e0c T __Z16DNBThreadGetInfoiy
000000010000f17c T __Z16DNBThreadGetNameiy
000000010000fed4 T __Z16DNBWatchpointSetiymjj
0000000100031e10 T __Z16ListApplicationsRNSt3__112basic_stringIcNS_11char_traitsIcEENS_9allocatorIcEEEEbb
000000010000f320 T __Z17DNBThreadGetStateiy
000000010000fe00 T __Z18DNBBreakpointCleariy
000000010000e510 T __Z18DNBProcessGetStatei
0000000100011c80 T __Z18DNBSetArchitecturePKc
000000010000ffa0 T __Z18DNBWatchpointCleariy
000000010000981c T __Z18RNBRunLoopPlatformP9RNBRemote
000000010002d684 T __Z18XMLAttributeStringRNSt3__119basic_ostringstreamIcNS_11char_traitsIcEENS_9allocatorIcEEEEPKcS8_S8_
00000001000299cc T __Z18decode_binary_dataPKcm
000000010000ee20 T __Z19DNBProcessInterrupti
000000010000eeec T __Z19DNBProcessSendEventiPKc
0000000100009ae8 T __Z19show_usage_and_exiti
000000010000f728 T __Z20DNBGetDispatchQueueTiy
000000010000e88c T __Z20DNBProcessAttachWaitP10RNBContextPKcbP8timespecjPcmPFbPvES6_
00000001000103c4 T __Z20DNBProcessGetCPUTypei
0000000100010144 T __Z20DNBProcessMemoryReadiymPv
0000000100011164 T __Z21DNBGetRegisterCPUTypev
0000000100011168 T __Z21DNBGetRegisterSetInfoPm
000000010000fb20 T __Z21DNBGetSharedCacheInfoi
000000010000f0b4 T __Z21DNBProcessGetExitInfoi
00000001000105e0 T __Z21DNBProcessMemoryWriteiymPKv
000000010000e604 T __Z21DNBProcessResetEventsij
000000010000d3c4 T __Z21DNBProcessSetExitInfoiPKc
0000000100009a84 T __Z21show_version_and_exiti
0000000100011c4c T __Z22DNBGetOSVersionNumbersPyS_S_
000000010000de54 T __Z22DNBProcessAttachByNamePKcP8timespecbPcm
000000010000da5c T __Z22DNBProcessGetPIDByNamePKc
000000010001192c T __Z22DNBProcessGetStopCounti
0000000100010d40 T __Z22DNBThreadGetStopReasoniyP17DNBThreadStopInfo
000000010000efd0 T __Z23DNBProcessGetExitStatusiPi
0000000100010ad0 T __Z23DNBProcessGetNumThreadsi
000000010000e430 T __Z23DNBProcessWaitForEventsijbP8timespec
000000010000f4bc T __Z24DNBGetGenealogyImageInfoim
0000000100010938 T __Z24DNBProcessGetProfileDatai22DNBProfileDataScanType
00000001000106b0 T __Z24DNBProcessMemoryAllocateimj
00000001000119e8 T __Z24DNBResolveExecutablePathPKcPcm
0000000100009394 T __Z24HandleProcessStateChangeP9RNBRemoteb
0000000100008c34 T __Z24RNBRunLoopLaunchInferiorP9RNBRemotePKcS2_S2_b
000000010000f7f8 T __Z25DNBGetTSDAddressForThreadiyyyy
0000000100010fac T __Z25DNBProcessSyncThreadStateiy
000000010002d740 T __Z25GenerateTargetXMLRegisterRNSt3__119basic_ostringstreamIcNS_11char_traitsIcEENS_9allocatorIcEEEEjmPK18DNBRegisterSetInfoRK18register_map_entry
00000001000091cc T __Z25RNBRunLoopLaunchAttachingP9RNBRemoteiRi
0000000100011f4c T __Z26DNBDebugserverIsTranslatedv
0000000100010ba0 T __Z26DNBProcessGetCurrentThreadi
0000000100010edc T __Z26DNBProcessGetThreadAtIndexim
0000000100010788 T __Z26DNBProcessMemoryDeallocateiy
0000000100010860 T __Z26DNBProcessMemoryRegionInfoiyP13DNBRegionInfo
0000000100010c70 T __Z26DNBProcessSetCurrentThreadiy
000000010000f24c T __Z26DNBThreadGetIdentifierInfoiyP22thread_identifier_info
0000000100011500 T __Z26DNBThreadSaveRegisterStateiy
000000010002e02c T __Z26GenerateTargetXMLRegistersRNSt3__119basic_ostringstreamIcNS_11char_traitsIcEENS_9allocatorIcEEEE
000000010000f588 T __Z27DNBGetRequestedQoSForThreadiyyy
0000000100010494 T __Z27DNBProcessMemoryReadCStringiy
0000000100010214 T __Z27DNBProcessMemoryReadIntegeriymy
00000001000102a4 T __Z27DNBProcessMemoryReadPointeriy
0000000100011350 T __Z27DNBThreadGetRegisterContextiyPvm
000000010001142c T __Z27DNBThreadSetRegisterContextiyPKvm
0000000100009564 T __Z27RNBRunLoopInferiorExecutingP9RNBRemote
000000010000f3f0 T __Z28DNBGetGenealogyInfoForThreadiyRb
000000010001178c T __Z28DNBProcessGetAvailableSTDERRiPcm
00000001000116bc T __Z28DNBProcessGetAvailableSTDOUTiPcm
000000010000f994 T __Z29DNBGetAllLoadedLibrariesInfosi
000000010001116c T __Z29DNBThreadGetRegisterValueByIDiyjjP16DNBRegisterValue
00000001000115e0 T __Z29DNBThreadRestoreRegisterStateiyj
000000010001127c T __Z29DNBThreadSetRegisterValueByIDiyjjPK16DNBRegisterValue
0000000100011c50 T __Z30DNBGetMacCatalystVersionStringv
000000010000fa58 T __Z31DNBGetLibrariesInfoForAddressesiRNSt3__16vectorIyNS_9allocatorIyEEEE
0000000100010074 T __Z31DNBWatchpointGetNumSupportedHWPi
0000000100010548 T __Z32DNBProcessMemoryReadCStringFixediym
00000001000089d8 T __Z32RNBRunLoopGetStartModeFromRemoteP9RNBRemote
000000010000f8c8 T __Z33DNBGetLoadedDynamicLibrariesInfosiyy
000000010001185c T __Z33DNBProcessGetAvailableProfileDataiPcm
0000000100010a04 T __Z33DNBProcessSetEnableAsyncProfilingijy22DNBProfileDataScanType
000000010002b954 T __Z33register_value_in_hex_fixed_widthRNSt3__113basic_ostreamIcNS_11char_traitsIcEEEEiyPK18register_map_entryPK16DNBRegisterValue
000000010001107c T __Z37DNBProcessGetSharedLibraryInfoAddressi
000000010002e8b8 T __Z40get_boolean_value_for_key_name_from_jsonPKcS0_Rb
000000010002e770 T __Z40get_integer_value_for_key_name_from_jsonPKcS0_
000000010002ea24 T __Z46get_array_of_ints_value_for_key_name_from_jsonPKcS0_RNSt3__16vectorIyNS1_9allocatorIyEEEE
000000010002bb20 T __Z54debugserver_regnum_with_fixed_width_hex_register_valueRNSt3__113basic_ostreamIcNS_11char_traitsIcEEEEiyPK18register_map_entryPK16DNBRegisterValue
0000000100071c30 b __ZGVZL15_DNBLogVAPrintfjPKcPcE18g_LogThreadedMutex
0000000100472150 b __ZGVZN12MachVMMemory16GetMemoryProfileE22DNBProfileDataScanTypej15task_basic_infoiiR15vm_statistics64RyS4_S4_S4_E9localHost
0000000100471d38 b __ZGVZN8MachTask14GetProfileDataE22DNBProfileDataScanTypeE8pagesize
0000000100071c98 b __ZGVZN9RNBRemote17HandleAsyncPacketEPNS_10PacketEnumEE13g_packetTimer
0000000100071cb8 b __ZGVZN9RNBRemote20HandleReceivedPacketEPNS_10PacketEnumEE13g_packetTimer
000000010003f3b4 t __ZL11SetFBSErrorlNSt3__112basic_stringIcNS_11char_traitsIcEENS_9allocatorIcEEEER8DNBError
0000000100071bc0 b __ZL11g_log_baton
000000010003ee28 t __ZL12GetAppBundleNSt3__112basic_stringIcNS_11char_traitsIcEENS_9allocatorIcEEEE
0000000100071be8 b __ZL12g_message_id
0000000100471cf8 b __ZL12g_target_xml
000000010000bd4c t __ZL13ConnectRemoteP9RNBRemotePKcibS2_S2_
0000000100071b98 b __ZL13g_applist_opt
0000000100071cd8 b __ZL13g_reg_entries
0000000100042c54 t __ZL14SplitEventDataPKcRNSt3__16vectorINS1_12basic_stringIcNS1_11char_traitsIcEENS1_9allocatorIcEEEENS6_IS8_EEEE
0000000100071b9c b __ZL14g_lockdown_opt
0000000100071bb8 b __ZL14g_log_callback
0000000100068168 d __ZL14g_long_options
000000010002b218 t __ZL14get_identifierRNSt3__112basic_stringIcNS_11char_traitsIcEENS_9allocatorIcEEEE
0000000100011fa4 t __ZL14waitpid_threadPv
000000010000d8d0 t __ZL15AddProcessToMapiRNSt3__110shared_ptrI11MachProcessEE
000000010002d1c8 t __ZL15ReadStackMemoryiyRNSt3__13mapIy11StackMemoryNS_4lessIyEENS_9allocatorINS_4pairIKyS1_EEEEEEj
0000000100071b88 b __ZL15g_launch_flavor
0000000100071ce0 b __ZL17g_num_reg_entries
0000000100071ba0 b __ZL18g_current_cpu_type
000000010003f030 t __ZL19CopyBundleIDForPathPKcR8DNBError
000000010000d7cc t __ZL20spawn_waitpid_threadi
0000000100071ba4 b __ZL21g_current_cpu_subtype
0000000100071c48 b __ZL22OS_LOG_EVENTS_KEY_NAME
0000000100071cc0 b __ZL22g_dynamic_register_map
000000010000dabc t __ZL23GetAllInfosMatchingNamePKcRNSt3__16vectorI10kinfo_procNS1_9allocatorIS3_EEEE
0000000100052047 s __ZL23g_arm_breakpoint_opcode
0000000100041658 t __ZL24BKSAddEventDataToOptionsP19NSMutableDictionaryPKcR8DNBError
0000000100050df0 t __ZL24BKSAddEventDataToOptionsP19NSMutableDictionaryPKcR8DNBError.cold.1
00000001000418e0 t __ZL24FBSAddEventDataToOptionsP19NSMutableDictionaryPKcR8DNBError
0000000100050e3c t __ZL24FBSAddEventDataToOptionsP19NSMutableDictionaryPKcR8DNBError.cold.1
0000000100071c60 b __ZL24JSON_ASYNC_TYPE_KEY_NAME
00000001000520ac s __ZL25g_arm64_breakpoint_opcode
0000000100052045 s __ZL25g_thumb_breakpoint_opcode
000000010000c1d0 t __ZL29PortWasBoundCallbackNamedPipePKvt
000000010002d3c4 t __ZL29RNBRemoteShouldCancelCallbackPv
000000010000c06c t __ZL30PortWasBoundCallbackUnixSocketPKvt
0000000100050a58 t __ZL30PortWasBoundCallbackUnixSocketPKvt.cold.1
0000000100050a70 t __ZL30PortWasBoundCallbackUnixSocketPKvt.cold.2
0000000100050a88 t __ZL30PortWasBoundCallbackUnixSocketPKvt.cold.3
0000000100041e58 t __ZL37CallBoardSystemServiceOpenApplicationI16BKSSystemService27BKSOpenApplicationErrorCodeLS1_0EXadL_ZL11SetBKSErrorlNSt3__112basic_stringIcNS2_11char_traitsIcEENS2_9allocatorIcEEEER8DNBErrorEEEbP8NSStringP12NSDictionarySA_Pi
0000000100042670 t __ZL37CallBoardSystemServiceOpenApplicationI16FBSSystemService27FBSOpenApplicationErrorCodeLS1_0EXadL_ZL11SetFBSErrorlNSt3__112basic_stringIcNS2_11char_traitsIcEENS2_9allocatorIcEEEER8DNBErrorEEEbP8NSStringP12NSDictionarySA_Pi
0000000100472164 b __ZL4LoHi
00000001004721a4 b __ZL4LoHi
0000000100071bb0 b __ZL7g_debug
0000000100471d28 b __ZL9g_message
0000000100071bb4 b __ZL9g_verbose
00000001000339dc t __ZN10CFReleaserIP10__CFBundleED0Ev
000000010003399c t __ZN10CFReleaserIP10__CFBundleED1Ev
0000000100033d28 t __ZN10CFReleaserIPK10__CFStringED0Ev
0000000100033ce8 t __ZN10CFReleaserIPK10__CFStringED1Ev
0000000100033a18 t __ZN10CFReleaserIPK7__CFURLED0Ev
0000000100033868 t __ZN10CFReleaserIPK7__CFURLED1Ev
000000010001279c T __ZN10DNBDataRef4DumpEjjyNS_4TypeEjPKc
00000001000125b8 T __ZN10DNBDataRefC1EPKhmb
00000001000125d8 T __ZN10DNBDataRefD1Ev
0000000100046b04 T __ZN10MachThread10IsSteppingEv
0000000100046a08 T __ZN10MachThread10ShouldStopERb
0000000100046f28 T __ZN10MachThread11GetPThreadTEv
0000000100046758 T __ZN10MachThread11IsUserReadyEv
0000000100046b40 T __ZN10MachThread13ThreadDidStopEv
0000000100047138 T __ZN10MachThread15GetRequestedQoSEyy
0000000100046c30 T __ZN10MachThread15NotifyExceptionERN13MachException4DataE
0000000100046d14 T __ZN10MachThread16GetRegisterValueEjjP16DNBRegisterValue
0000000100046d24 T __ZN10MachThread16SetRegisterValueEjjPK16DNBRegisterValue
00000001000468e8 T __ZN10MachThread16ThreadWillResumeEPK21DNBThreadResumeActionb
0000000100046df4 T __ZN10MachThread17FinishTransForHWPEv
0000000100047088 T __ZN10MachThread17GetDispatchQueueTEv
0000000100046d54 T __ZN10MachThread17SaveRegisterStateEv
0000000100046d34 T __ZN10MachThread18GetRegisterContextEPvm
0000000100046d44 T __ZN10MachThread18SetRegisterContextEPKvm
0000000100046de4 T __ZN10MachThread19RollbackTransForHWPEv
0000000100046d64 T __ZN10MachThread20RestoreRegisterStateEj
0000000100046fd0 T __ZN10MachThread22GetTSDAddressForThreadEyyy
0000000100046d74 T __ZN10MachThread24EnableHardwareBreakpointEPK13DNBBreakpointb
0000000100046da8 T __ZN10MachThread24EnableHardwareWatchpointEPK13DNBBreakpointb
0000000100046e04 T __ZN10MachThread25DisableHardwareBreakpointEPK13DNBBreakpointb
0000000100046e2c T __ZN10MachThread25DisableHardwareWatchpointEPK13DNBBreakpointb
0000000100046310 T __ZN10MachThread27SetSuspendCountBeforeResumeEb
00000001000464bc T __ZN10MachThread28RestoreSuspendCountAfterStopEv
0000000100046edc T __ZN10MachThread38GetGloballyUniqueThreadIDForMachPortIDEj
00000001000467fc T __ZN10MachThread4DumpEj
0000000100046e64 T __ZN10MachThread7GetNameEv
000000010004625c T __ZN10MachThread7SuspendEv
0000000100046acc T __ZN10MachThread8GetStateEv
00000001000461ac T __ZN10MachThreadC1EP11MachProcessbyj
0000000100046044 T __ZN10MachThreadC2EP11MachProcessbyj
0000000100046258 T __ZN10MachThreadD1Ev
00000001000461b0 T __ZN10MachThreadD2Ev
000000010000bc6c t __ZN10RNBContext12PushArgumentEPKc
0000000100015980 T __ZN10RNBContext12SetProcessIDEi
0000000100016344 T __ZN10RNBContext14EventsAsStringEjRNSt3__112basic_stringIcNS0_11char_traitsIcEENS0_9allocatorIcEEEE
0000000100015d9c T __ZN10RNBContext15ArgumentAtIndexEm
000000010000bb8c t __ZN10RNBContext15PushEnvironmentEPKc
00000001000159e0 T __ZN10RNBContext18EnvironmentAtIndexEm
0000000100015de0 T __ZN10RNBContext19SetWorkingDirectoryEPKc
000000010001644c T __ZN10RNBContext20LaunchStatusAsStringERNSt3__112basic_stringIcNS0_11char_traitsIcEENS0_9allocatorIcEEEE
0000000100015a24 T __ZN10RNBContext23PushEnvironmentIfNeededEPKc
0000000100015e5c T __ZN10RNBContext23StopProcessStatusThreadEv
0000000100015f64 T __ZN10RNBContext24StartProcessStatusThreadEv
0000000100016058 T __ZN10RNBContext27ThreadFunctionProcessStatusEPv
00000001000159cc T __ZN10RNBContextD0Ev
00000001000159c8 T __ZN10RNBContextD1Ev
00000001000157e8 T __ZN10RNBContextD2Ev
000000010003ac4c T __ZN11MachProcess10GetCPUTypeEv
0000000100038084 T __ZN11MachProcess10ReadMemoryEymPv
0000000100037cd4 T __ZN11MachProcess11GetPThreadTEy
000000010003aee0 T __ZN11MachProcess11STDIOThreadEPv
000000010003dcd4 T __ZN11MachProcess11SetExitInfoEPKc
000000010003c978 T __ZN11MachProcess11WriteMemoryEymPKv
000000010003dd88 T __ZN11MachProcess12AppendSTDOUTEPcm
000000010003b628 T __ZN11MachProcess13PrivateResumeEv
000000010003b390 T __ZN11MachProcess13ProfileThreadEPv
0000000100037bd0 T __ZN11MachProcess13ThreadGetNameEy
000000010003e2a0 T __ZN11MachProcess14AttachForDebugEibPcm
000000010003f820 T __ZN11MachProcess14LaunchForDebugEPKcPS1_S2_S1_S1_S1_S1_b19nub_launch_flavor_tiS1_bR8DNBError
0000000100037bd8 T __ZN11MachProcess14ThreadGetStateEy
000000010003f4f8 T __ZN11MachProcess15CheckForProcessEPKv19nub_launch_flavor_t
0000000100037ccc T __ZN11MachProcess15GetRequestedQoSEyyy
0000000100037bf0 T __ZN11MachProcess15SyncThreadStateEy
0000000100050c10 t __ZN11MachProcess15SyncThreadStateEy.cold.1
000000010003cb58 T __ZN11MachProcess16CreateBreakpointEymb
000000010003ce44 T __ZN11MachProcess16CreateWatchpointEymjb
000000010003cc58 T __ZN11MachProcess16EnableBreakpointEy
000000010003cf50 T __ZN11MachProcess16EnableWatchpointEy
000000010003abf8 T __ZN11MachProcess16GetCurrentThreadEv
000000010003e7d8 T __ZN11MachProcess16PrepareForAttachEPKc19nub_launch_flavor_tbR8DNBError
000000010003ac00 T __ZN11MachProcess16SetCurrentThreadEy
000000010003d000 T __ZN11MachProcess17DisableBreakpointEyb
000000010003d410 T __ZN11MachProcess17DisableWatchpointEyb
0000000100037cec T __ZN11MachProcess17GetDeploymentInfoERK12load_commandyb
0000000100037cdc T __ZN11MachProcess17GetDispatchQueueTEy
000000010003f56c T __ZN11MachProcess18CleanupAfterAttachEPKv19nub_launch_flavor_tbR8DNBError
000000010003df7c T __ZN11MachProcess18GetAvailableSTDERREPcm
000000010003de44 T __ZN11MachProcess18GetAvailableSTDOUTEPcm
000000010003a870 T __ZN11MachProcess18GetSharedCacheInfoEi
000000010003e0fc T __ZN11MachProcess19GetAsyncProfileDataEPcm
000000010003e71c T __ZN11MachProcess19GetOSVersionNumbersEPyS0_S0_
000000010003c794 T __ZN11MachProcess20ReplyToAllExceptionsEv
000000010003f6f8 T __ZN11MachProcess21BKSCleanupAfterAttachEPKvR8DNBError
000000010003c068 T __ZN11MachProcess21BoardServiceSendEventEPKcR8DNBError
000000010003c4a0 T __ZN11MachProcess21DisableAllBreakpointsEb
000000010003c524 T __ZN11MachProcess21DisableAllWatchpointsEb
000000010003f5d0 T __ZN11MachProcess21FBSCleanupAfterAttachEPKvR8DNBError
000000010003e714 T __ZN11MachProcess21GetGenealogyImageInfoEm
00000001000415c0 T __ZN11MachProcess21ProcessUsingBackBoardEv
0000000100037ce4 T __ZN11MachProcess22GetTSDAddressForThreadEyyyy
000000010003ac08 T __ZN11MachProcess22GetThreadStoppedReasonEyP17DNBThreadStopInfo
000000010003df84 T __ZN11MachProcess22SignalAsyncProfileDataEPKc
000000010003b2cc T __ZN11MachProcess23SetEnableAsyncProfilingEby22DNBProfileDataScanType
000000010003d564 T __ZN11MachProcess24ExceptionMessageReceivedERKN13MachException7MessageE
000000010003e6f4 T __ZN11MachProcess25GetGenealogyInfoForThreadEyRb
00000001000400c4 T __ZN11MachProcess26BoardServiceLaunchForDebugEPKcPS1_S2_bbS1_bR8DNBError
000000010003a20c T __ZN11MachProcess26GetAllLoadedLibrariesInfosEi
0000000100050d70 t __ZN11MachProcess26GetAllLoadedLibrariesInfosEi.cold.1
000000010003ffcc T __ZN11MachProcess27ForkChildForPTraceDebuggingEPKcPS1_S2_PS_R8DNBError
00000001000380d8 T __ZN11MachProcess27GetMacCatalystVersionStringEv
000000010003a480 T __ZN11MachProcess28GetLibrariesInfoForAddressesEiRNSt3__16vectorIyNS0_9allocatorIyEEEE
0000000100050db0 t __ZN11MachProcess28GetLibrariesInfoForAddressesEiRNSt3__16vectorIyNS0_9allocatorIyEEEE.cold.1
00000001000381d8 T __ZN11MachProcess29GetMachOInformationFromMemoryEjyiRNS_18mach_o_informationE
000000010003d6d8 T __ZN11MachProcess30ExceptionMessageBundleCompleteEv
00000001000388bc T __ZN11MachProcess30FormatDynamicLibrariesIntoJSONERKNSt3__16vectorINS_24binary_image_informationENS0_9allocatorIS2_EEEE
0000000100050c3c t __ZN11MachProcess30FormatDynamicLibrariesIntoJSONERKNSt3__16vectorINS_24binary_image_informationENS0_9allocatorIS2_EEEE.cold.1
0000000100050cac t __ZN11MachProcess30FormatDynamicLibrariesIntoJSONERKNSt3__16vectorINS_24binary_image_informationENS0_9allocatorIS2_EEEE.cold.2
0000000100050cd8 t __ZN11MachProcess30FormatDynamicLibrariesIntoJSONERKNSt3__16vectorINS_24binary_image_informationENS0_9allocatorIS2_EEEE.cold.3
0000000100050d04 t __ZN11MachProcess30FormatDynamicLibrariesIntoJSONERKNSt3__16vectorINS_24binary_image_informationENS0_9allocatorIS2_EEEE.cold.4
0000000100039a5c T __ZN11MachProcess30GetLoadedDynamicLibrariesInfosEiyy
0000000100050d30 t __ZN11MachProcess30GetLoadedDynamicLibrariesInfosEiyy.cold.1
0000000100040400 T __ZN11MachProcess33PosixSpawnChildForPTraceDebuggingEPKciiPS1_S2_S1_S1_S1_S1_bPS_iR8DNBError
0000000100040c70 T __ZN11MachProcess39BoardServiceForkChildForPTraceDebuggingEPKcPS1_S2_bbS1_R8DNBError
000000010003b728 T __ZN11MachProcess4KillEPK8timespec
0000000100037a08 T __ZN11MachProcess5ClearEb
000000010003c5a8 T __ZN11MachProcess6DetachEv
000000010003b534 T __ZN11MachProcess6ResumeERK22DNBThreadResumeActions
000000010003be54 T __ZN11MachProcess6SignalEiPK8timespec
0000000100037b94 T __ZN11MachProcess8GetStateEv
000000010003ad48 T __ZN11MachProcess8SetStateE11nub_state_t
000000010003b9d8 T __ZN11MachProcess9DoSIGSTOPEbbPj
000000010003bd44 T __ZN11MachProcess9InterruptEv
000000010003bfe8 T __ZN11MachProcess9SendEventEPKcR8DNBError
0000000100037664 T __ZN11MachProcessC1Ev
0000000100036ec8 T __ZN11MachProcessC2Ev
0000000100050bb0 t __ZN11MachProcessC2Ev.cold.1
0000000100037b90 T __ZN11MachProcessD1Ev
0000000100037668 T __ZN11MachProcessD2Ev
000000010004a2c4 T __ZN12MachVMMemory11WriteRegionEjyPKvm
0000000100049e50 T __ZN12MachVMMemory16GetMemoryProfileE22DNBProfileDataScanTypej15task_basic_infoiiR15vm_statistics64RyS4_S4_S4_
0000000100049d24 T __ZN12MachVMMemory19GetMemoryRegionInfoEjyP13DNBRegionInfo
0000000100049fdc T __ZN12MachVMMemory4ReadEjyPvm
000000010004a190 T __ZN12MachVMMemory5WriteEjyPKvm
00000001000499fc T __ZN12MachVMMemory8PageSizeEj
00000001000499b4 T __ZN12MachVMMemoryC1Ev
00000001000499cc T __ZN12MachVMMemoryD1Ev
000000010004a64c T __ZN12MachVMRegion14SetProtectionsEyyi
000000010004a548 T __ZN12MachVMRegion18RestoreProtectionsEv
000000010004a840 T __ZN12MachVMRegion19GetRegionForAddressEy
000000010004a474 T __ZN12MachVMRegionC1Ej
000000010004a4b4 T __ZN12MachVMRegionD1Ev
0000000100015600 T __ZN12PThreadEvent11ResetEventsEj
00000001000155b4 T __ZN12PThreadEvent9SetEventsEj
00000001000154dc T __ZN12PThreadEventC1Ejj
0000000100015534 T __ZN12PThreadEventD1Ev
0000000100013404 t __ZN12PThreadMutexD1Ev
0000000100014cf8 T __ZN12lldb_private13SocketAddress12GetMaxLengthEv
0000000100014e64 T __ZN12lldb_private13SocketAddress14GetAddressInfoEPKcS2_iiii
0000000100015090 T __ZN12lldb_private13SocketAddress15SetToAnyAddressEht
0000000100014e3c T __ZN12lldb_private13SocketAddress7SetPortEt
0000000100014cd4 T __ZN12lldb_private13SocketAddressC1Ev
0000000100014cec T __ZN12lldb_private13SocketAddressD1Ev
000000010002ef60 t __ZN13JSONGenerator10Dictionary13AddStringItemENSt3__112basic_stringIcNS1_11char_traitsIcEENS1_9allocatorIcEEEES7_
000000010002f0f4 t __ZN13JSONGenerator10Dictionary14AddBooleanItemENSt3__112basic_stringIcNS1_11char_traitsIcEENS1_9allocatorIcEEEEb
000000010002ed1c t __ZN13JSONGenerator10Dictionary14AddIntegerItemENSt3__112basic_stringIcNS1_11char_traitsIcEENS1_9allocatorIcEEEEy
000000010002f23c t __ZN13JSONGenerator10Dictionary24AddBytesAsHexASCIIStringENSt3__112basic_stringIcNS1_11char_traitsIcEENS1_9allocatorIcEEEEPKhm
000000010002ee64 t __ZN13JSONGenerator10Dictionary7AddItemENSt3__112basic_stringIcNS1_11char_traitsIcEENS1_9allocatorIcEEEENS1_10shared_ptrINS_6ObjectEEE
000000010002f9d4 t __ZN13JSONGenerator10DictionaryD0Ev
000000010002f9d0 t __ZN13JSONGenerator10DictionaryD1Ev
000000010002fb78 t __ZN13JSONGenerator10DictionaryD2Ev
000000010002fd28 t __ZN13JSONGenerator5ArrayD0Ev
000000010002fc74 t __ZN13JSONGenerator5ArrayD1Ev
000000010002f9f0 t __ZN13JSONGenerator6Object5ClearEv
000000010003027c t __ZN13JSONGenerator6StringD0Ev
0000000100030224 t __ZN13JSONGenerator6StringD1Ev
0000000100030430 t __ZN13JSONGenerator7BooleanD0Ev
0000000100030404 t __ZN13JSONGenerator7BooleanD1Ev
0000000100030020 t __ZN13JSONGenerator7IntegerD0Ev
000000010002fff4 t __ZN13JSONGenerator7IntegerD1Ev
0000000100036138 t __ZN13MachException4Data19AppendExceptionDataEPxj
00000001000368d8 T __ZN13MachException7Message19CatchExceptionRaiseEj
000000010003693c T __ZN13MachException7Message5ReplyEP11MachProcessi
0000000100036794 T __ZN13MachException7Message7ReceiveEjijj
0000000100036bbc T __ZN13MachException8PortInfo4SaveEj
0000000100036d8c T __ZN13MachException8PortInfo7RestoreEj
000000010004b1e4 T __ZN14DNBArchMachARM10InitializeEv
0000000100063300 S __ZN14DNBArchMachARM10g_reg_setsE
000000010004b374 T __ZN14DNBArchMachARM11GetGPRStateEb
000000010004b4ec T __ZN14DNBArchMachARM11GetVFPStateEb
000000010004b60c T __ZN14DNBArchMachARM11SetVFPStateEv
000000010004ba2c T __ZN14DNBArchMachARM13ThreadDidStopEv
000000010004bb0c T __ZN14DNBArchMachARM15NotifyExceptionERN13MachException4DataE
000000010004bdb8 T __ZN14DNBArchMachARM15StepNotCompleteEv
0000000100063228 S __ZN14DNBArchMachARM15g_exc_registersE
0000000100061650 S __ZN14DNBArchMachARM15g_gpr_registersE
0000000100061b18 S __ZN14DNBArchMachARM15g_vfp_registersE
000000010004ccc8 T __ZN14DNBArchMachARM16GetRegisterStateEib
000000010004c9e0 T __ZN14DNBArchMachARM16GetRegisterValueEjjP16DNBRegisterValue
000000010004ce60 T __ZN14DNBArchMachARM16SetRegisterStateEi
000000010004cb50 T __ZN14DNBArchMachARM16SetRegisterValueEjjPK16DNBRegisterValue
000000010004b714 T __ZN14DNBArchMachARM16ThreadWillResumeEv
000000010004d2b0 T __ZN14DNBArchMachARM17SaveRegisterStateEv
000000010004d048 T __ZN14DNBArchMachARM18GetRegisterContextEPvm
000000010004b308 T __ZN14DNBArchMachARM18GetRegisterSetInfoEPm
000000010004d168 T __ZN14DNBArchMachARM18SetRegisterContextEPKvm
000000010004d49c T __ZN14DNBArchMachARM20RestoreRegisterStateEj
000000010004bf5c T __ZN14DNBArchMachARM24EnableHardwareBreakpointEymb
000000010004b868 T __ZN14DNBArchMachARM24EnableHardwareSingleStepEb
000000010004c200 T __ZN14DNBArchMachARM24EnableHardwareWatchpointEymbbb
000000010004c880 T __ZN14DNBArchMachARM24GetHardwareWatchpointHitERy
000000010004b31c T __ZN14DNBArchMachARM24SoftwareBreakpointOpcodeEm
000000010004c104 T __ZN14DNBArchMachARM25DisableHardwareBreakpointEjb
000000010004c698 T __ZN14DNBArchMachARM25DisableHardwareWatchpointEjb
000000010004c510 T __ZN14DNBArchMachARM26ReenableHardwareWatchpointEj
000000010004be44 T __ZN14DNBArchMachARM31NumSupportedHardwareBreakpointsEv
000000010004bed0 T __ZN14DNBArchMachARM31NumSupportedHardwareWatchpointsEv
000000010004c730 T __ZN14DNBArchMachARM32DisableHardwareWatchpoint_helperEjb
000000010004c59c T __ZN14DNBArchMachARM33ReenableHardwareWatchpoint_helperEj
000000010004b340 T __ZN14DNBArchMachARM5GetPCEy
000000010004b4b8 T __ZN14DNBArchMachARM5GetSPEy
000000010004b45c T __ZN14DNBArchMachARM5SetPCEy
000000010004b214 T __ZN14DNBArchMachARM6CreateEP10MachThread
000000010004d694 t __ZN14DNBArchMachARMD0Ev
000000010004d64c t __ZN14DNBArchMachARMD1Ev
00000001000492c8 T __ZN14MachThreadList10ShouldStopERb
000000010004791c T __ZN14MachThreadList11GetPThreadTEy
0000000100048714 T __ZN14MachThreadList13CurrentThreadERNSt3__110shared_ptrI10MachThreadEE
0000000100049240 T __ZN14MachThreadList14ProcessDidStopEP11MachProcess
0000000100048690 T __ZN14MachThreadList15CurrentThreadIDEv
00000001000477d0 T __ZN14MachThreadList15GetRequestedQoSEyyy
0000000100048850 T __ZN14MachThreadList15NotifyExceptionERN13MachException4DataE
0000000100047be8 T __ZN14MachThreadList16SetCurrentThreadEy
00000001000489dc T __ZN14MachThreadList16UpdateThreadListEP11MachProcessbPNSt3__16vectorINS2_10shared_ptrI10MachThreadEENS2_9allocatorIS6_EEEE
0000000100047a00 T __ZN14MachThreadList17GetDispatchQueueTEy
0000000100047e0c T __ZN14MachThreadList17GetIdentifierInfoEyP22thread_identifier_info
0000000100048f7c T __ZN14MachThreadList17ProcessWillResumeEP11MachProcessRK22DNBThreadResumeActions
000000010004841c T __ZN14MachThreadList17SaveRegisterStateEy
0000000100048224 T __ZN14MachThreadList18GetRegisterContextEyPvm
0000000100048320 T __ZN14MachThreadList18SetRegisterContextEyPKvm
0000000100048500 T __ZN14MachThreadList20RestoreRegisterStateEyj
0000000100047ae4 T __ZN14MachThreadList22GetTSDAddressForThreadEyyyy
0000000100049378 T __ZN14MachThreadList23NotifyBreakpointChangedEPK13DNBBreakpoint
0000000100048950 T __ZN14MachThreadList5ClearEv
00000001000476ec T __ZN14MachThreadList7GetNameEy
000000010004756c T __ZN14MachThreadList8GetStateEy
00000001000473dc T __ZN14MachThreadListC1Ev
0000000100047568 T __ZN14MachThreadListD1Ev
0000000100047468 T __ZN14MachThreadListD2Ev
0000000100015280 T __ZN14PseudoTerminal25OpenFirstAvailablePrimaryEi
0000000100015318 T __ZN14PseudoTerminal4ForkERNS_6StatusE
0000000100015224 T __ZN14PseudoTerminalC1Ev
0000000100015230 T __ZN14PseudoTerminalD1Ev
000000010000c304 T __ZN15DNBArchProtocol10GetCPUTypeEv
000000010000c310 T __ZN15DNBArchProtocol13GetCPUSubTypeEv
000000010000c31c T __ZN15DNBArchProtocol15SetArchitectureEjj
0000000100050728 t __ZN15DNBArchProtocol15StepNotCompleteEv
000000010004d6dc t __ZN15DNBArchProtocol16StartTransForHWPEv
000000010004d6ec t __ZN15DNBArchProtocol17FinishTransForHWPEv
000000010000c4f0 T __ZN15DNBArchProtocol18GetRegisterCPUTypeEv
000000010000c54c T __ZN15DNBArchProtocol18GetRegisterSetInfoEPm
000000010000c3e0 T __ZN15DNBArchProtocol18RegisterArchPluginERK20DNBArchPluginInfoTag
000000010000c608 T __ZN15DNBArchProtocol19GetBreakpointOpcodeEm
000000010004d6e4 t __ZN15DNBArchProtocol19RollbackTransForHWPEv
000000010000c5ac T __ZN15DNBArchProtocol6CreateEP10MachThread
000000010004dc78 T __ZN16DNBArchMachARM6410InitializeEv
00000001000679b8 S __ZN16DNBArchMachARM6410g_reg_setsE
000000010004dda8 T __ZN16DNBArchMachARM6411GetGPRStateEb
000000010004e04c T __ZN16DNBArchMachARM6411GetVFPStateEb
000000010004e84c T __ZN16DNBArchMachARM6413ThreadDidStopEv
000000010004e4fc T __ZN16DNBArchMachARM6415NotifyExceptionERN13MachException4DataE
00000001000662f0 S __ZN16DNBArchMachARM6415g_amx_registersE
0000000100066218 S __ZN16DNBArchMachARM6415g_exc_registersE
00000001000634d0 S __ZN16DNBArchMachARM6415g_gpr_registersE
0000000100064688 S __ZN16DNBArchMachARM6415g_vfp_registersE
000000010004faac T __ZN16DNBArchMachARM6416GetRegisterStateEib
000000010004f580 T __ZN16DNBArchMachARM6416GetRegisterValueEjjP16DNBRegisterValue
000000010004fc6c T __ZN16DNBArchMachARM6416SetRegisterStateEi
000000010004f7fc T __ZN16DNBArchMachARM6416SetRegisterValueEjjPK16DNBRegisterValue
000000010004e238 T __ZN16DNBArchMachARM6416ThreadWillResumeEv
0000000100050280 T __ZN16DNBArchMachARM6417SaveRegisterStateEv
000000010004ff84 T __ZN16DNBArchMachARM6418GetRegisterContextEPvm
000000010004dd08 T __ZN16DNBArchMachARM6418GetRegisterSetInfoEPm
00000001000500bc T __ZN16DNBArchMachARM6418SetRegisterContextEPKvm
0000000100067a18 S __ZN16DNBArchMachARM6419g_reg_sets_with_amxE
0000000100050440 T __ZN16DNBArchMachARM6420RestoreRegisterStateEj
000000010004ea54 T __ZN16DNBArchMachARM6424EnableHardwareBreakpointEymb
000000010004e360 T __ZN16DNBArchMachARM6424EnableHardwareSingleStepEb
000000010004ec24 T __ZN16DNBArchMachARM6424EnableHardwareWatchpointEymbbb
000000010004f3b8 T __ZN16DNBArchMachARM6424GetHardwareWatchpointHitERy
000000010004dd68 T __ZN16DNBArchMachARM6424SoftwareBreakpointOpcodeEm
000000010004f26c T __ZN16DNBArchMachARM6425DisableHardwareBreakpointEjb
000000010004f094 T __ZN16DNBArchMachARM6425DisableHardwareWatchpointEjb
000000010004ef14 T __ZN16DNBArchMachARM6426ReenableHardwareWatchpointEj
000000010004e9c8 T __ZN16DNBArchMachARM6431NumSupportedHardwareBreakpointsEv
000000010004e93c T __ZN16DNBArchMachARM6431NumSupportedHardwareWatchpointsEv
000000010004f11c T __ZN16DNBArchMachARM6432DisableHardwareWatchpoint_helperEjb
000000010004efa0 T __ZN16DNBArchMachARM6433ReenableHardwareWatchpoint_helperEj
000000010004dd74 T __ZN16DNBArchMachARM645GetPCEy
000000010004e018 T __ZN16DNBArchMachARM645GetSPEy
000000010004df48 T __ZN16DNBArchMachARM645SetPCEy
000000010004dcc0 T __ZN16DNBArchMachARM646CreateEP10MachThread
0000000100050730 t __ZN16DNBArchMachARM64C2EP10MachThread
00000001000506cc t __ZN16DNBArchMachARM64D0Ev
0000000100050670 t __ZN16DNBArchMachARM64D1Ev
000000010000cc74 T __ZN17DNBBreakpointList10DisableAllEv
000000010000c938 T __ZN17DNBBreakpointList13FindByAddressEy
000000010000cf60 T __ZN17DNBBreakpointList14RemoveDisabledEv
000000010000ce28 T __ZN17DNBBreakpointList21DisableAllBreakpointsEP11MachProcess
000000010000cec4 T __ZN17DNBBreakpointList21DisableAllWatchpointsEP11MachProcess
000000010000c980 T __ZN17DNBBreakpointList31FindBreakpointsThatOverlapRangeEyyRNSt3__16vectorIP13DNBBreakpointNS0_9allocatorIS3_EEEE
000000010000c70c T __ZN17DNBBreakpointList3AddEymb
000000010000c860 T __ZN17DNBBreakpointList6RemoveEy
000000010000c6d0 T __ZN17DNBBreakpointListC1Ev
000000010000c6e4 T __ZN17DNBBreakpointListD1Ev
0000000100014258 T __ZN18StdStringExtractor11DecodeHexU8Ev
0000000100014a6c T __ZN18StdStringExtractor11GetHexBytesEPvmh
000000010001446c T __ZN18StdStringExtractor12GetHexMaxU32Ebj
000000010001476c T __ZN18StdStringExtractor12GetHexMaxU64Eby
0000000100014b3c T __ZN18StdStringExtractor16GetHexByteStringERNSt3__112basic_stringIcNS0_11char_traitsIcEENS0_9allocatorIcEEEE
0000000100014c00 T __ZN18StdStringExtractor17GetNameColonValueERNSt3__112basic_stringIcNS0_11char_traitsIcEENS0_9allocatorIcEEEES7_
00000001000143d4 T __ZN18StdStringExtractor6GetU32Eji
000000010001420c T __ZN18StdStringExtractor7GetCharEc
0000000100014154 T __ZN18StdStringExtractorC1EPKc
00000001000141d0 T __ZN18StdStringExtractorD0Ev
0000000100014194 T __ZN18StdStringExtractorD1Ev
0000000100013b08 T __ZN22DNBThreadResumeActions12AppendActionEy11nub_state_tiy
0000000100013790 T __ZN22DNBThreadResumeActions30SetDefaultThreadActionIfNeededE11nub_state_ti
0000000100013984 T __ZN22DNBThreadResumeActions6AppendERK21DNBThreadResumeAction
0000000100013954 T __ZN22DNBThreadResumeActionsC1E11nub_state_ti
0000000100013720 T __ZN22DNBThreadResumeActionsC1EPK21DNBThreadResumeActionm
0000000100013440 T __ZN22DNBThreadResumeActionsC1Ev
00000001000375b4 t __ZN22DNBThreadResumeActionsD1Ev
000000010003372c T __ZN8CFBundle7SetPathEPKc
0000000100033818 T __ZN8CFBundleC1EPKc
0000000100033914 T __ZN8CFBundleD0Ev
00000001000338a8 T __ZN8CFBundleD1Ev
0000000100033b44 T __ZN8CFString27SetFileSystemRepresentationEPKc
0000000100033c28 T __ZN8CFString4UTF8EPK10__CFStringRNSt3__112basic_stringIcNS3_11char_traitsIcEENS3_9allocatorIcEEEE
0000000100033ba4 T __ZN8CFString8GlobPathEPKcRNSt3__112basic_stringIcNS2_11char_traitsIcEENS2_9allocatorIcEEEE
0000000100033a54 T __ZN8CFStringC1EPK10__CFString
0000000100033a64 T __ZN8CFStringC1EPKcj
0000000100033b08 T __ZN8CFStringD0Ev
0000000100033ac8 T __ZN8CFStringD1Ev
000000010002f8d0 t __ZN8DNBTimerC2Eb
00000001000290e0 t __ZN8DNBTimerD1Ev
0000000100043f7c T __ZN8MachTask10ReadMemoryEymPv
0000000100044068 T __ZN8MachTask11WriteMemoryEymPKv
0000000100045d7c T __ZN8MachTask14AllocateMemoryEmj
00000001000441d8 T __ZN8MachTask14GetProfileDataE22DNBProfileDataScanType
00000001000456e8 T __ZN8MachTask15ExceptionThreadEPv
0000000100045ed0 T __ZN8MachTask16DeallocateMemoryEy
0000000100044154 T __ZN8MachTask19GetMemoryRegionInfoEyP13DNBRegionInfo
0000000100045478 T __ZN8MachTask20StartExceptionThreadEbR8DNBError
0000000100045188 T __ZN8MachTask20TaskPortForProcessIDER8DNBErrorb
00000001000451d0 T __ZN8MachTask20TaskPortForProcessIDEiR8DNBErrorjj
0000000100045aec T __ZN8MachTask24ShutDownExcecptionThreadEv
0000000100045cb8 T __ZN8MachTask27GetDYLDAllImageInfosAddressER8DNBError
0000000100043b40 T __ZN8MachTask5ClearEv
0000000100043ca4 T __ZN8MachTask6ResumeEv
000000010004544c T __ZN8MachTask7IsValidEj
0000000100043bf4 T __ZN8MachTask7SuspendEv
0000000100043e14 T __ZN8MachTask9BasicInfoEjP15task_basic_info
0000000100043ad0 T __ZN8MachTaskC1EP11MachProcess
0000000100043ba4 T __ZN8MachTaskD0Ev
0000000100043b54 T __ZN8MachTaskD1Ev
000000010004add0 T __ZN8OsLogger14GetLogFunctionEv
0000000100033f30 T __ZN9Genealogy13GetActivitiesEiRK14MachThreadListj
0000000100035a24 t __ZN9Genealogy14ThreadActivityD2Ev
0000000100033e78 T __ZN9Genealogy25GetGenealogyInfoForThreadEiyRK14MachThreadListjRb
00000001000354a4 T __ZN9Genealogy32GetProcessExecutableInfosAtIndexEm
00000001000345bc T __ZN9Genealogy5ClearEv
0000000100033e74 T __ZN9GenealogyC1Ev
0000000100033d64 T __ZN9GenealogyC2Ev
000000010003749c t __ZN9GenealogyD1Ev
0000000100027a08 T __ZN9RNBRemote10FlushSTDIOEv
0000000100029b90 T __ZN9RNBRemote10InitializeEv
0000000100027df8 T __ZN9RNBRemote10SendPacketERKNSt3__112basic_stringIcNS0_11char_traitsIcEENS0_9allocatorIcEEEE
00000001000281fc T __ZN9RNBRemote14CompressStringERKNSt3__112basic_stringIcNS0_11char_traitsIcEENS0_9allocatorIcEEEE
000000010001d1c8 T __ZN9RNBRemote14HandlePacket_AEPKc
000000010001d484 T __ZN9RNBRemote14HandlePacket_CEPKc
000000010001d688 T __ZN9RNBRemote14HandlePacket_DEPKc
000000010001c204 T __ZN9RNBRemote14HandlePacket_GEPKc
000000010001cc04 T __ZN9RNBRemote14HandlePacket_HEPKc
000000010001bb60 T __ZN9RNBRemote14HandlePacket_MEPKc
000000010001bee4 T __ZN9RNBRemote14HandlePacket_PEPKc
000000010001c9f0 T __ZN9RNBRemote14HandlePacket_SEPKc
000000010001d7c4 T __ZN9RNBRemote14HandlePacket_TEPKc
000000010001f510 T __ZN9RNBRemote14HandlePacket_XEPKc
000000010001c868 T __ZN9RNBRemote14HandlePacket_cEPKc
000000010001b840 T __ZN9RNBRemote14HandlePacket_gEPKc
000000010001d748 T __ZN9RNBRemote14HandlePacket_kEPKc
000000010001b014 T __ZN9RNBRemote14HandlePacket_mEPKc
000000010001b408 T __ZN9RNBRemote14HandlePacket_pEPKc
000000010001c710 T __ZN9RNBRemote14HandlePacket_sEPKc
000000010001da5c T __ZN9RNBRemote14HandlePacket_vEPKc
000000010001eff8 T __ZN9RNBRemote14HandlePacket_xEPKc
000000010001c468 T __ZN9RNBRemote14HandlePacket_zEPKc
000000010001fe24 T __ZN9RNBRemote15HandlePacket_qCEPKc
00000001000292ec T __ZN9RNBRemote16CommDataReceivedERKNSt3__112basic_stringIcNS0_11char_traitsIcEENS0_9allocatorIcEEEE
000000010002869c T __ZN9RNBRemote16GetPacketPayloadERNSt3__112basic_stringIcNS0_11char_traitsIcEENS0_9allocatorIcEEEE
00000001000166cc T __ZN9RNBRemote17CreatePacketTableEv
0000000100028e10 T __ZN9RNBRemote17HandleAsyncPacketEPNS_10PacketEnumE
000000010002bd68 T __ZN9RNBRemote18GetJSONThreadsInfoEb
000000010001ffcc T __ZN9RNBRemote18HandlePacket_qEchoEPKc
000000010001f888 T __ZN9RNBRemote18HandlePacket_qRcmdEPKc
0000000100026fe4 T __ZN9RNBRemote18HandlePacket_qXferEPKc
0000000100029b94 T __ZN9RNBRemote19InitializeRegistersEb
000000010002008c T __ZN9RNBRemote20HandlePacket_qGetPidEPKc
00000001000223dc T __ZN9RNBRemote20HandlePacket_qSymbolEPKc
0000000100029134 T __ZN9RNBRemote20HandleReceivedPacketEPNS_10PacketEnumE
0000000100027b00 T __ZN9RNBRemote20SendAsyncProfileDataEv
0000000100028d04 T __ZN9RNBRemote22HandlePacket_ILLFORMEDEPKciS1_S1_
0000000100025140 T __ZN9RNBRemote22HandlePacket_QSetSTDIOEPKc
00000001000214e4 T __ZN9RNBRemote22HandlePacket_qHostInfoEPKc
0000000100026e78 T __ZN9RNBRemote23HandlePacket_qSpeedTestEPKc
000000010001d8fc T __ZN9RNBRemote23HandlePacket_qSupportedEPKc
0000000100025028 T __ZN9RNBRemote24HandlePacket_QLaunchArchEPKc
0000000100024b4c T __ZN9RNBRemote24HandlePacket_QSetLoggingEPKc
000000010001cd18 T __ZN9RNBRemote24HandlePacket_last_signalEPKc
00000001000201f4 T __ZN9RNBRemote24HandlePacket_qThreadInfoEPKc
000000010002a310 T __ZN9RNBRemote24NotifyThatProcessStoppedEv
0000000100027bd8 T __ZN9RNBRemote24SendHexEncodedBytePacketEPKcPKvmS1_
000000010001aeb4 T __ZN9RNBRemote24StopReadRemoteDataThreadEv
0000000100024d3c T __ZN9RNBRemote25HandlePacket_QEnvironmentEPKc
0000000100024220 T __ZN9RNBRemote25HandlePacket_jThreadsInfoEPKc
0000000100021c9c T __ZN9RNBRemote25HandlePacket_qProcessInfoEPKc
000000010001d180 T __ZN9RNBRemote25HandlePacket_stop_processEPKc
00000001000296b8 T __ZN9RNBRemote25StartReadRemoteDataThreadEv
0000000100028c08 T __ZN9RNBRemote26HandlePacket_UNIMPLEMENTEDEPKc
00000001000208f0 T __ZN9RNBRemote26HandlePacket_qRegisterInfoEPKc
00000001000255b8 T __ZN9RNBRemote27HandlePacket_AllocateMemoryEPKc
0000000100026240 T __ZN9RNBRemote27HandlePacket_GetProfileDataEPKc
00000001000252b8 T __ZN9RNBRemote27HandlePacket_QSetWorkingDirEPKc
00000001000205e4 T __ZN9RNBRemote27HandlePacket_qLaunchSuccessEPKc
0000000100021200 T __ZN9RNBRemote27HandlePacket_qShlibInfoAddrEPKc
00000001000250a8 T __ZN9RNBRemote28HandlePacket_QSetDisableASLREPKc
0000000100024a90 T __ZN9RNBRemote28HandlePacket_QStartNoAckModeEPKc
0000000100020464 T __ZN9RNBRemote28HandlePacket_qThreadStopInfoEPKc
000000010002a314 T __ZN9RNBRemote28SendStopReplyPacketForThreadEy
00000001000297f0 T __ZN9RNBRemote28ThreadFunctionReadRemoteDataEPv
0000000100025848 T __ZN9RNBRemote29HandlePacket_DeallocateMemoryEPKc
0000000100025c88 T __ZN9RNBRemote29HandlePacket_MemoryRegionInfoEPKc
0000000100026d50 T __ZN9RNBRemote29HandlePacket_QSetProcessEventEPKc
00000001000254c4 T __ZN9RNBRemote29HandlePacket_QSyncThreadStateEPKc
0000000100020498 T __ZN9RNBRemote29HandlePacket_qThreadExtraInfoEPKc
0000000100026de0 T __ZN9RNBRemote30HandlePacket_QSetDetachOnErrorEPKc
0000000100024bb0 T __ZN9RNBRemote30HandlePacket_QSetMaxPacketSizeEPKc
00000001000258fc T __ZN9RNBRemote30HandlePacket_SaveRegisterStateEPKc
0000000100021b18 T __ZN9RNBRemote30HandlePacket_qGDBServerVersionEPKc
00000001000269ec T __ZN9RNBRemote31HandlePacket_QEnableCompressionEPKc
0000000100024c78 T __ZN9RNBRemote31HandlePacket_QSetMaxPayloadSizeEPKc
00000001000246f0 T __ZN9RNBRemote32HandlePacket_jGetSharedCacheInfoEPKc
0000000100022908 T __ZN9RNBRemote32HandlePacket_jThreadExtendedInfoEPKc
0000000100025b0c T __ZN9RNBRemote33HandlePacket_RestoreRegisterStateEPKc
00000001000213e8 T __ZN9RNBRemote33HandlePacket_qStepPacketSupportedEPKc
0000000100026b48 T __ZN9RNBRemote34HandlePacket_WatchpointSupportInfoEPKc
0000000100024e40 T __ZN9RNBRemote35HandlePacket_QEnvironmentHexEncodedEPKc
0000000100024af0 T __ZN9RNBRemote35HandlePacket_QThreadSuffixSupportedEPKc
0000000100025464 T __ZN9RNBRemote36HandlePacket_QListThreadsInStopReplyEPKc
00000001000265c8 T __ZN9RNBRemote36HandlePacket_SetEnableAsyncProfilingEPKc
000000010002143c T __ZN9RNBRemote36HandlePacket_qVAttachOrWaitSupportedEPKc
0000000100021490 T __ZN9RNBRemote38HandlePacket_qSyncThreadStateSupportedEPKc
0000000100023da4 T __ZN9RNBRemote44HandlePacket_jGetLoadedDynamicLibrariesInfosEPKc
000000010002f7c8 t __ZN9RNBRemote6PacketC2ENS_10PacketEnumEMS_F9rnb_err_tPKcES6_S4_S4_
00000001000284f4 T __ZN9RNBRemote9GetPacketERNSt3__112basic_stringIcNS0_11char_traitsIcEENS0_9allocatorIcEEEERNS_6PacketEb
000000010001ad0c T __ZN9RNBRemoteC1Ev
0000000100016530 T __ZN9RNBRemoteC2Ev
000000010001b010 T __ZN9RNBRemoteD1Ev
000000010001ad10 T __ZN9RNBRemoteD2Ev
0000000100032ad0 T __ZN9RNBSocket10DisconnectEb
0000000100032dc0 T __ZN9RNBSocket16ConnectToServiceEb
00000001000330c0 T __ZN9RNBSocket4ReadERNSt3__112basic_stringIcNS0_11char_traitsIcEENS0_9allocatorIcEEEE
00000001000332d8 T __ZN9RNBSocket5WriteEPKvm
0000000100032d7c T __ZN9RNBSocket5useFDEi
0000000100032114 T __ZN9RNBSocket6ListenEPKctPFvPKvtES3_
0000000100032b84 T __ZN9RNBSocket7ConnectEPKct
0000000100050b54 t __ZN9RNBSocket7ConnectEPKct.cold.1
0000000100032fc0 T __ZN9RNBSocket8OpenFileEPKc
0000000100033708 T __ZN9SysSignal4NameEi
00000001000125dc T __ZNK10DNBDataRef5Get32EPj
0000000100012738 T __ZNK10DNBDataRef7GetCStrEPjj
0000000100012620 T __ZNK10DNBDataRef8GetMax64EPjj
0000000100046cd0 T __ZNK10MachThread15GetRegisterInfoEmm
00000001000466ac T __ZNK10MachThread20GetBasicInfoAsStringEv
0000000100046e54 T __ZNK10MachThread31NumSupportedHardwareWatchpointsEv
000000010001650c T __ZNK10RNBContext19ProcessStateRunningEv
0000000100037be0 T __ZNK11MachProcess13GetNumThreadsEv
000000010003ac44 T __ZNK11MachProcess13GetThreadInfoEy
000000010003ad38 T __ZNK11MachProcess16GetRegisterValueEyjjP16DNBRegisterValue
0000000100037be8 T __ZNK11MachProcess16GetThreadAtIndexEm
000000010003ad40 T __ZNK11MachProcess16SetRegisterValueEyjjPK16DNBRegisterValue
000000010003d55c T __ZNK11MachProcess34GetNumSupportedHardwareWatchpointsEv
000000010004aa88 T __ZNK12MachVMRegion14GetMemoryTypesEv
000000010004aa4c T __ZNK12MachVMRegion17GetDNBPermissionsEv
0000000100015584 T __ZNK12PThreadEvent12GetEventBitsEv
0000000100015758 T __ZNK12PThreadEvent15WaitForResetAckEjPK8timespec
000000010001564c T __ZNK12PThreadEvent16WaitForSetEventsEjPK8timespec
00000001000156d8 T __ZNK12PThreadEvent20WaitForEventsToResetEjPK8timespec
000000010001516c T __ZNK12lldb_private13SocketAddress11IsLocalhostEv
0000000100014d08 T __ZNK12lldb_private13SocketAddress12GetIPAddressEv
0000000100014e14 T __ZNK12lldb_private13SocketAddress7GetPortEv
0000000100014d00 T __ZNK12lldb_private13SocketAddress9GetFamilyEv
0000000100014cf0 T __ZNK12lldb_private13SocketAddress9GetLengthEv
0000000100015100 T __ZNK12lldb_private13SocketAddress9IsAnyAddrEv
00000001000151b8 T __ZNK12lldb_private13SocketAddresseqERKS0_
000000010002f9fc t __ZNK13JSONGenerator10Dictionary4DumpERNSt3__113basic_ostreamIcNS1_11char_traitsIcEEEE
000000010002fddc t __ZNK13JSONGenerator5Array4DumpERNSt3__113basic_ostreamIcNS1_11char_traitsIcEEEE
000000010002f9e8 t __ZNK13JSONGenerator6Object7IsValidEv
00000001000302d4 t __ZNK13JSONGenerator6String4DumpERNSt3__113basic_ostreamIcNS1_11char_traitsIcEEEE
000000010003045c t __ZNK13JSONGenerator7Boolean4DumpERNSt3__113basic_ostreamIcNS1_11char_traitsIcEEEE
000000010003004c t __ZNK13JSONGenerator7Integer4DumpERNSt3__113basic_ostreamIcNS1_11char_traitsIcEEEE
00000001000364c0 T __ZNK13MachException4Data11GetStopInfoEP17DNBThreadStopInfo
00000001000362d0 T __ZNK13MachException4Data4DumpEv
000000010003623c T __ZNK13MachException7Message4DumpEv
000000010004cfd4 T __ZNK14DNBArchMachARM23RegisterSetStateIsValidEi
00000001000485ec T __ZNK14MachThreadList10NumThreadsEv
0000000100047650 T __ZNK14MachThreadList13GetThreadByIDEy
0000000100047eb8 T __ZNK14MachThreadList13GetThreadInfoEy
000000010004862c T __ZNK14MachThreadList15ThreadIDAtIndexEm
000000010004801c T __ZNK14MachThreadList16GetRegisterValueEyjjP16DNBRegisterValue
0000000100048120 T __ZNK14MachThreadList16SetRegisterValueEyjjPK16DNBRegisterValue
0000000100047d20 T __ZNK14MachThreadList22GetThreadStoppedReasonEyP17DNBThreadStopInfo
0000000100049624 T __ZNK14MachThreadList24EnableHardwareBreakpointEPK13DNBBreakpoint
0000000100049538 T __ZNK14MachThreadList24EnableHardwareWatchpointEPK13DNBBreakpoint
000000010004962c T __ZNK14MachThreadList25DisableHardwareBreakpointEPK13DNBBreakpoint
0000000100049540 T __ZNK14MachThreadList25DisableHardwareWatchpointEPK13DNBBreakpoint
00000001000493a0 T __ZNK14MachThreadList26DoHardwareBreakpointActionEPK13DNBBreakpointNS_24HardwareBreakpointActionE
0000000100047f9c T __ZNK14MachThreadList27GetThreadIDByMachPortNumberEj
0000000100049710 T __ZNK14MachThreadList31NumSupportedHardwareWatchpointsEv
0000000100049764 T __ZNK14MachThreadList40GetThreadIndexForThreadStoppedWithSignalEi
0000000100048ef8 T __ZNK14MachThreadList4DumpEv
0000000100015304 T __ZNK14PseudoTerminal13SecondaryNameEv
000000010004ff10 T __ZNK16DNBArchMachARM6423RegisterSetStateIsValidEi
000000010000ccf0 T __ZNK17DNBBreakpointList21RemoveTrapsFromBufferEymPv
0000000100013b34 T __ZNK22DNBThreadResumeActions18GetActionForThreadEyb
0000000100013ba8 T __ZNK22DNBThreadResumeActions19NumActionsWithStateE11nub_state_t
0000000100013c50 T __ZNK22DNBThreadResumeActions25SetSignalHandledForThreadEy
000000010003397c T __ZNK8CFBundle13GetIdentifierEv
000000010003398c T __ZNK8CFBundle17CopyExecutableURLEv
0000000100012e78 T __ZNK8DNBError11LogThreadedEPKcz
0000000100012de4 T __ZNK8DNBError18LogThreadedIfErrorEPKcz
0000000100012d1c T __ZNK8DNBError8AsStringEv
000000010002bc0c T __ZNK9RNBRemote20DispatchQueueOffsets18GetThreadQueueInfoEiyRyRNSt3__112basic_stringIcNS2_11char_traitsIcEENS2_9allocatorIcEEEES1_S1_
0000000100041be0 t __ZNKSt3__112basic_stringIcNS_11char_traitsIcEENS_9allocatorIcEEE20__throw_length_errorEv
                 U __ZNKSt3__112basic_stringIcNS_11char_traitsIcEENS_9allocatorIcEEE4findEcm
                 U __ZNKSt3__112basic_stringIcNS_11char_traitsIcEENS_9allocatorIcEEE5rfindEcm
                 U __ZNKSt3__112basic_stringIcNS_11char_traitsIcEENS_9allocatorIcEEE7compareEPKc
                 U __ZNKSt3__112basic_stringIcNS_11char_traitsIcEENS_9allocatorIcEEE7compareEmmPKcm
0000000100041e4c t __ZNKSt3__113__vector_baseI21DNBThreadResumeActionNS_9allocatorIS1_EEE20__throw_length_errorEv
00000001000336fc t __ZNKSt3__113__vector_baseI6keventNS_9allocatorIS1_EEE20__throw_length_errorEv
000000010004302c t __ZNKSt3__113__vector_baseIN11MachProcess14mach_o_segmentENS_9allocatorIS2_EEE20__throw_length_errorEv
0000000100043788 t __ZNKSt3__113__vector_baseIN11MachProcess24binary_image_informationENS_9allocatorIS2_EEE20__throw_length_errorEv
0000000100043a34 t __ZNKSt3__113__vector_baseIN13MachException7MessageENS_9allocatorIS2_EEE20__throw_length_errorEv
000000010004d8cc t __ZNKSt3__113__vector_baseIN14DNBArchMachARM19disabled_watchpointENS_9allocatorIS2_EEE20__throw_length_errorEv
0000000100050a4c t __ZNKSt3__113__vector_baseIN16DNBArchMachARM6419disabled_watchpointENS_9allocatorIS2_EEE20__throw_length_errorEv
0000000100043a28 t __ZNKSt3__113__vector_baseIxNS_9allocatorIxEEE20__throw_length_errorEv
0000000100046038 t __ZNKSt3__113__vector_baseIyNS_9allocatorIyEEE20__throw_length_errorEv
                 U __ZNKSt3__115basic_stringbufIcNS_11char_traitsIcEENS_9allocatorIcEEE3strEv
                 U __ZNKSt3__119__shared_weak_count13__get_deleterERKSt9type_info
                 U __ZNKSt3__120__vector_base_commonILb1EE20__throw_length_errorEv
                 U __ZNKSt3__121__basic_string_commonILb1EE20__throw_length_errorEv
                 U __ZNKSt3__16locale9use_facetERNS0_2idE
                 U __ZNKSt3__18ios_base6getlocEv
                 U __ZNSt11logic_errorC2EPKc
00000001000335b4 t __ZNSt12length_errorC1EPKc
                 U __ZNSt12length_errorD1Ev
0000000100008980 t __ZNSt3__110shared_ptrI9RNBRemoteED1Ev
000000010004315c t __ZNSt3__110shared_ptrIN13JSONGenerator10DictionaryEEC2IS2_vEEPT_
0000000100043038 t __ZNSt3__110shared_ptrIN13JSONGenerator5ArrayEEC2IS2_vEEPT_
000000010002f6a0 t __ZNSt3__112__deque_baseINS_12basic_stringIcNS_11char_traitsIcEENS_9allocatorIcEEEENS4_IS6_EEE5clearEv
0000000100031668 t __ZNSt3__112__hash_tableIjNS_4hashIjEENS_8equal_toIjEENS_9allocatorIjEEE25__emplace_unique_key_argsIjJRKjEEENS_4pairINS_15__hash_iteratorIPNS_11__hash_nodeIjPvEEEEbEERKT_DpOT0_
0000000100031868 t __ZNSt3__112__hash_tableIjNS_4hashIjEENS_8equal_toIjEENS_9allocatorIjEEE6rehashEm
0000000100031944 t __ZNSt3__112__hash_tableIjNS_4hashIjEENS_8equal_toIjEENS_9allocatorIjEEE8__rehashEm
                 U __ZNSt3__112__next_primeEm
                 U __ZNSt3__112basic_stringIcNS_11char_traitsIcEENS_9allocatorIcEEE5eraseEmm
                 U __ZNSt3__112basic_stringIcNS_11char_traitsIcEENS_9allocatorIcEEE6appendEPKc
                 U __ZNSt3__112basic_stringIcNS_11char_traitsIcEENS_9allocatorIcEEE6appendEPKcm
                 U __ZNSt3__112basic_stringIcNS_11char_traitsIcEENS_9allocatorIcEEE6appendEmc
                 U __ZNSt3__112basic_stringIcNS_11char_traitsIcEENS_9allocatorIcEEE6assignEPKc
                 U __ZNSt3__112basic_stringIcNS_11char_traitsIcEENS_9allocatorIcEEE6assignEPKcm
                 U __ZNSt3__112basic_stringIcNS_11char_traitsIcEENS_9allocatorIcEEE6assignERKS5_mm
                 U __ZNSt3__112basic_stringIcNS_11char_traitsIcEENS_9allocatorIcEEE6insertEmPKc
                 U __ZNSt3__112basic_stringIcNS_11char_traitsIcEENS_9allocatorIcEEE6resizeEmc
                 U __ZNSt3__112basic_stringIcNS_11char_traitsIcEENS_9allocatorIcEEE7reserveEm
                 U __ZNSt3__112basic_stringIcNS_11char_traitsIcEENS_9allocatorIcEEE9push_backEc
                 U __ZNSt3__112basic_stringIcNS_11char_traitsIcEENS_9allocatorIcEEEC1ERKS5_
                 U __ZNSt3__112basic_stringIcNS_11char_traitsIcEENS_9allocatorIcEEEC1ERKS5_mmRKS4_
                 U __ZNSt3__112basic_stringIcNS_11char_traitsIcEENS_9allocatorIcEEED1Ev
                 U __ZNSt3__112basic_stringIcNS_11char_traitsIcEENS_9allocatorIcEEEaSERKS5_
                 U __ZNSt3__112basic_stringIcNS_11char_traitsIcEENS_9allocatorIcEEEaSEc
000000010004d8d8 t __ZNSt3__113__tree_removeIPNS_16__tree_node_baseIPvEEEEvT_S5_
                 U __ZNSt3__113basic_istreamIcNS_11char_traitsIcEEED2Ev
                 U __ZNSt3__113basic_istreamIcNS_11char_traitsIcEEErsERj
                 U __ZNSt3__113basic_ostreamIcNS_11char_traitsIcEEE3putEc
                 U __ZNSt3__113basic_ostreamIcNS_11char_traitsIcEEE5flushEv
                 U __ZNSt3__113basic_ostreamIcNS_11char_traitsIcEEE6sentryC1ERS3_
                 U __ZNSt3__113basic_ostreamIcNS_11char_traitsIcEEE6sentryD1Ev
                 U __ZNSt3__113basic_ostreamIcNS_11char_traitsIcEEED2Ev
                 U __ZNSt3__113basic_ostreamIcNS_11char_traitsIcEEElsEd
                 U __ZNSt3__113basic_ostreamIcNS_11char_traitsIcEEElsEi
                 U __ZNSt3__113basic_ostreamIcNS_11char_traitsIcEEElsEj
                 U __ZNSt3__113basic_ostreamIcNS_11char_traitsIcEEElsEm
                 U __ZNSt3__113basic_ostreamIcNS_11char_traitsIcEEElsEy
0000000100030f1c t __ZNSt3__114__split_bufferIPNS_12basic_stringIcNS_11char_traitsIcEENS_9allocatorIcEEEENS4_IS7_EEE10push_frontEOS7_
0000000100030d74 t __ZNSt3__114__split_bufferIPNS_12basic_stringIcNS_11char_traitsIcEENS_9allocatorIcEEEENS4_IS7_EEE9push_backEOS7_
0000000100030f1c t __ZNSt3__114__split_bufferIPNS_12basic_stringIcNS_11char_traitsIcEENS_9allocatorIcEEEERNS4_IS7_EEE10push_frontERKS7_
                 U __ZNSt3__115basic_streambufIcNS_11char_traitsIcEEEC2Ev
                 U __ZNSt3__115basic_streambufIcNS_11char_traitsIcEEED2Ev
                 U __ZNSt3__115basic_stringbufIcNS_11char_traitsIcEENS_9allocatorIcEEE3strERKNS_12basic_stringIcS2_S4_EE
0000000100013f18 t __ZNSt3__116__copy_unalignedINS_6vectorIbNS_9allocatorIbEEEELb0EEENS_14__bit_iteratorIT_Lb0EXLi0EEEENS5_IS6_XT0_EXLi0EEEES8_S7_
00000001000305b8 t __ZNSt3__116__pad_and_outputIcNS_11char_traitsIcEEEENS_19ostreambuf_iteratorIT_T0_EES6_PKS4_S8_S8_RNS_8ios_baseES4_
0000000100043548 t __ZNSt3__116allocator_traitsINS_9allocatorIN11MachProcess24binary_image_informationEEEE9constructIS3_JRKS3_EvEEvRS4_PT_DpOT0_
                 U __ZNSt3__119__shared_weak_count14__release_weakEv
                 U __ZNSt3__119__shared_weak_countD2Ev
00000001000499a8 t __ZNSt3__120__shared_ptr_emplaceI10MachThreadNS_9allocatorIS1_EEE16__on_zero_sharedEv
00000001000499b0 t __ZNSt3__120__shared_ptr_emplaceI10MachThreadNS_9allocatorIS1_EEE21__on_zero_shared_weakEv
0000000100049984 t __ZNSt3__120__shared_ptr_emplaceI10MachThreadNS_9allocatorIS1_EEED0Ev
0000000100049970 t __ZNSt3__120__shared_ptr_emplaceI10MachThreadNS_9allocatorIS1_EEED1Ev
000000010000c2ac t __ZNSt3__120__shared_ptr_emplaceI9RNBRemoteNS_9allocatorIS1_EEE16__on_zero_sharedEv
000000010000c2b4 t __ZNSt3__120__shared_ptr_emplaceI9RNBRemoteNS_9allocatorIS1_EEE21__on_zero_shared_weakEv
000000010000c288 t __ZNSt3__120__shared_ptr_emplaceI9RNBRemoteNS_9allocatorIS1_EEED0Ev
000000010000c274 t __ZNSt3__120__shared_ptr_emplaceI9RNBRemoteNS_9allocatorIS1_EEED1Ev
0000000100031610 t __ZNSt3__120__shared_ptr_emplaceIN13JSONGenerator5ArrayENS_9allocatorIS2_EEE16__on_zero_sharedEv
000000010003161c t __ZNSt3__120__shared_ptr_emplaceIN13JSONGenerator5ArrayENS_9allocatorIS2_EEE21__on_zero_shared_weakEv
00000001000315ec t __ZNSt3__120__shared_ptr_emplaceIN13JSONGenerator5ArrayENS_9allocatorIS2_EEED0Ev
00000001000315d8 t __ZNSt3__120__shared_ptr_emplaceIN13JSONGenerator5ArrayENS_9allocatorIS2_EEED1Ev
00000001000123c8 t __ZNSt3__120__shared_ptr_pointerIP11MachProcessNS_10shared_ptrIS1_E27__shared_ptr_default_deleteIS1_S1_EENS_9allocatorIS1_EEE16__on_zero_sharedEv
00000001000123ec t __ZNSt3__120__shared_ptr_pointerIP11MachProcessNS_10shared_ptrIS1_E27__shared_ptr_default_deleteIS1_S1_EENS_9allocatorIS1_EEE21__on_zero_shared_weakEv
00000001000123b4 t __ZNSt3__120__shared_ptr_pointerIP11MachProcessNS_10shared_ptrIS1_E27__shared_ptr_default_deleteIS1_S1_EENS_9allocatorIS1_EEED0Ev
00000001000123b0 t __ZNSt3__120__shared_ptr_pointerIP11MachProcessNS_10shared_ptrIS1_E27__shared_ptr_default_deleteIS1_S1_EENS_9allocatorIS1_EEED1Ev
000000010002fc5c t __ZNSt3__120__shared_ptr_pointerIPN13JSONGenerator10DictionaryENS_10shared_ptrIS2_E27__shared_ptr_default_deleteIS2_S2_EENS_9allocatorIS2_EEE16__on_zero_sharedEv
00000001000123ec t __ZNSt3__120__shared_ptr_pointerIPN13JSONGenerator10DictionaryENS_10shared_ptrIS2_E27__shared_ptr_default_deleteIS2_S2_EENS_9allocatorIS2_EEE21__on_zero_shared_weakEv
0000000100031624 t __ZNSt3__120__shared_ptr_pointerIPN13JSONGenerator10DictionaryENS_10shared_ptrIS2_E27__shared_ptr_default_deleteIS2_S2_EENS_9allocatorIS2_EEED0Ev
0000000100031620 t __ZNSt3__120__shared_ptr_pointerIPN13JSONGenerator10DictionaryENS_10shared_ptrIS2_E27__shared_ptr_default_deleteIS2_S2_EENS_9allocatorIS2_EEED1Ev
000000010002fc5c t __ZNSt3__120__shared_ptr_pointerIPN13JSONGenerator5ArrayENS_10shared_ptrIS2_E27__shared_ptr_default_deleteIS2_S2_EENS_9allocatorIS2_EEE16__on_zero_sharedEv
00000001000123ec t __ZNSt3__120__shared_ptr_pointerIPN13JSONGenerator5ArrayENS_10shared_ptrIS2_E27__shared_ptr_default_deleteIS2_S2_EENS_9allocatorIS2_EEE21__on_zero_shared_weakEv
000000010003163c t __ZNSt3__120__shared_ptr_pointerIPN13JSONGenerator5ArrayENS_10shared_ptrIS2_E27__shared_ptr_default_deleteIS2_S2_EENS_9allocatorIS2_EEED0Ev
0000000100031638 t __ZNSt3__120__shared_ptr_pointerIPN13JSONGenerator5ArrayENS_10shared_ptrIS2_E27__shared_ptr_default_deleteIS2_S2_EENS_9allocatorIS2_EEED1Ev
000000010002fc5c t __ZNSt3__120__shared_ptr_pointerIPN13JSONGenerator6StringENS_10shared_ptrINS1_6ObjectEE27__shared_ptr_default_deleteIS5_S2_EENS_9allocatorIS2_EEE16__on_zero_sharedEv
00000001000123ec t __ZNSt3__120__shared_ptr_pointerIPN13JSONGenerator6StringENS_10shared_ptrINS1_6ObjectEE27__shared_ptr_default_deleteIS5_S2_EENS_9allocatorIS2_EEE21__on_zero_shared_weakEv
00000001000303f0 t __ZNSt3__120__shared_ptr_pointerIPN13JSONGenerator6StringENS_10shared_ptrINS1_6ObjectEE27__shared_ptr_default_deleteIS5_S2_EENS_9allocatorIS2_EEED0Ev
00000001000303ec t __ZNSt3__120__shared_ptr_pointerIPN13JSONGenerator6StringENS_10shared_ptrINS1_6ObjectEE27__shared_ptr_default_deleteIS5_S2_EENS_9allocatorIS2_EEED1Ev
000000010002fc5c t __ZNSt3__120__shared_ptr_pointerIPN13JSONGenerator7BooleanENS_10shared_ptrINS1_6ObjectEE27__shared_ptr_default_deleteIS5_S2_EENS_9allocatorIS2_EEE16__on_zero_sharedEv
00000001000123ec t __ZNSt3__120__shared_ptr_pointerIPN13JSONGenerator7BooleanENS_10shared_ptrINS1_6ObjectEE27__shared_ptr_default_deleteIS5_S2_EENS_9allocatorIS2_EEE21__on_zero_shared_weakEv
0000000100030494 t __ZNSt3__120__shared_ptr_pointerIPN13JSONGenerator7BooleanENS_10shared_ptrINS1_6ObjectEE27__shared_ptr_default_deleteIS5_S2_EENS_9allocatorIS2_EEED0Ev
0000000100030490 t __ZNSt3__120__shared_ptr_pointerIPN13JSONGenerator7BooleanENS_10shared_ptrINS1_6ObjectEE27__shared_ptr_default_deleteIS5_S2_EENS_9allocatorIS2_EEED1Ev
000000010002fc5c t __ZNSt3__120__shared_ptr_pointerIPN13JSONGenerator7IntegerENS_10shared_ptrINS1_6ObjectEE27__shared_ptr_default_deleteIS5_S2_EENS_9allocatorIS2_EEE16__on_zero_sharedEv
00000001000123ec t __ZNSt3__120__shared_ptr_pointerIPN13JSONGenerator7IntegerENS_10shared_ptrINS1_6ObjectEE27__shared_ptr_default_deleteIS5_S2_EENS_9allocatorIS2_EEE21__on_zero_shared_weakEv
000000010002fc48 t __ZNSt3__120__shared_ptr_pointerIPN13JSONGenerator7IntegerENS_10shared_ptrINS1_6ObjectEE27__shared_ptr_default_deleteIS5_S2_EENS_9allocatorIS2_EEED0Ev
000000010002fc44 t __ZNSt3__120__shared_ptr_pointerIPN13JSONGenerator7IntegerENS_10shared_ptrINS1_6ObjectEE27__shared_ptr_default_deleteIS5_S2_EENS_9allocatorIS2_EEED1Ev
000000010002fc5c t __ZNSt3__120__shared_ptr_pointerIPN13JSONGenerator7IntegerENS_10shared_ptrIS2_E27__shared_ptr_default_deleteIS2_S2_EENS_9allocatorIS2_EEE16__on_zero_sharedEv
00000001000123ec t __ZNSt3__120__shared_ptr_pointerIPN13JSONGenerator7IntegerENS_10shared_ptrIS2_E27__shared_ptr_default_deleteIS2_S2_EENS_9allocatorIS2_EEE21__on_zero_shared_weakEv
0000000100031654 t __ZNSt3__120__shared_ptr_pointerIPN13JSONGenerator7IntegerENS_10shared_ptrIS2_E27__shared_ptr_default_deleteIS2_S2_EENS_9allocatorIS2_EEED0Ev
0000000100031650 t __ZNSt3__120__shared_ptr_pointerIPN13JSONGenerator7IntegerENS_10shared_ptrIS2_E27__shared_ptr_default_deleteIS2_S2_EENS_9allocatorIS2_EEED1Ev
0000000100035a00 t __ZNSt3__120__shared_ptr_pointerIPN9Genealogy14ThreadActivityENS_10shared_ptrIS2_E27__shared_ptr_default_deleteIS2_S2_EENS_9allocatorIS2_EEE16__on_zero_sharedEv
00000001000123ec t __ZNSt3__120__shared_ptr_pointerIPN9Genealogy14ThreadActivityENS_10shared_ptrIS2_E27__shared_ptr_default_deleteIS2_S2_EENS_9allocatorIS2_EEE21__on_zero_shared_weakEv
00000001000359ec t __ZNSt3__120__shared_ptr_pointerIPN9Genealogy14ThreadActivityENS_10shared_ptrIS2_E27__shared_ptr_default_deleteIS2_S2_EENS_9allocatorIS2_EEED0Ev
00000001000359e8 t __ZNSt3__120__shared_ptr_pointerIPN9Genealogy14ThreadActivityENS_10shared_ptrIS2_E27__shared_ptr_default_deleteIS2_S2_EENS_9allocatorIS2_EEED1Ev
000000010003584c t __ZNSt3__120__shared_ptr_pointerIPN9Genealogy21ProcessExecutableInfoENS_10shared_ptrIS2_E27__shared_ptr_default_deleteIS2_S2_EENS_9allocatorIS2_EEE16__on_zero_sharedEv
00000001000123ec t __ZNSt3__120__shared_ptr_pointerIPN9Genealogy21ProcessExecutableInfoENS_10shared_ptrIS2_E27__shared_ptr_default_deleteIS2_S2_EENS_9allocatorIS2_EEE21__on_zero_shared_weakEv
0000000100035838 t __ZNSt3__120__shared_ptr_pointerIPN9Genealogy21ProcessExecutableInfoENS_10shared_ptrIS2_E27__shared_ptr_default_deleteIS2_S2_EENS_9allocatorIS2_EEED0Ev
0000000100035834 t __ZNSt3__120__shared_ptr_pointerIPN9Genealogy21ProcessExecutableInfoENS_10shared_ptrIS2_E27__shared_ptr_default_deleteIS2_S2_EENS_9allocatorIS2_EEED1Ev
0000000100033564 t __ZNSt3__120__throw_length_errorEPKc
00000001000304a8 t __ZNSt3__124__put_character_sequenceIcNS_11char_traitsIcEEEERNS_13basic_ostreamIT_T0_EES7_PKS4_m
0000000100012210 t __ZNSt3__127__tree_balance_after_insertIPNS_16__tree_node_baseIPvEEEEvT_S5_
000000010000c2dc t __ZNSt3__13mapIj20DNBArchPluginInfoTagNS_4lessIjEENS_9allocatorINS_4pairIKjS1_EEEEED1Ev
                 U __ZNSt3__15ctypeIcE2idE
00000001000308f8 t __ZNSt3__15dequeINS_12basic_stringIcNS_11char_traitsIcEENS_9allocatorIcEEEENS4_IS6_EEE19__add_back_capacityEv
000000010003111c t __ZNSt3__16__treeINS_12__value_typeINS_12basic_stringIcNS_11char_traitsIcEENS_9allocatorIcEEEEjEENS_19__map_value_compareIS7_S8_NS_4lessIS7_EELb1EEENS5_IS8_EEE12__find_equalIS7_EERPNS_16__tree_node_baseIPvEERPNS_15__tree_end_nodeISJ_EERKT_
00000001000314c4 t __ZNSt3__16__treeINS_12__value_typeINS_12basic_stringIcNS_11char_traitsIcEENS_9allocatorIcEEEEjEENS_19__map_value_compareIS7_S8_NS_4lessIS7_EELb1EEENS5_IS8_EEE4findIS7_EENS_15__tree_iteratorIS8_PNS_11__tree_nodeIS8_PvEElEERKT_
00000001000310cc t __ZNSt3__16__treeINS_12__value_typeINS_12basic_stringIcNS_11char_traitsIcEENS_9allocatorIcEEEEjEENS_19__map_value_compareIS7_S8_NS_4lessIS7_EELb1EEENS5_IS8_EEE7destroyEPNS_11__tree_nodeIS8_PvEE
000000010003344c t __ZNSt3__16__treeINS_12__value_typeIiN12lldb_private13SocketAddressEEENS_19__map_value_compareIiS4_NS_4lessIiEELb1EEENS_9allocatorIS4_EEE25__emplace_unique_key_argsIiJRKNS_21piecewise_construct_tENS_5tupleIJRKiEEENSG_IJEEEEEENS_4pairINS_15__tree_iteratorIS4_PNS_11__tree_nodeIS4_PvEElEEbEERKT_DpOT0_
0000000100033404 t __ZNSt3__16__treeINS_12__value_typeIiN12lldb_private13SocketAddressEEENS_19__map_value_compareIiS4_NS_4lessIiEELb1EEENS_9allocatorIS4_EEE7destroyEPNS_11__tree_nodeIS4_PvEE
000000010000c664 t __ZNSt3__16__treeINS_12__value_typeIj20DNBArchPluginInfoTagEENS_19__map_value_compareIjS3_NS_4lessIjEELb1EEENS_9allocatorIS3_EEE7destroyEPNS_11__tree_nodeIS3_PvEE
000000010000c664 t __ZNSt3__16__treeINS_12__value_typeIjN14DNBArchMachARM7ContextEEENS_19__map_value_compareIjS4_NS_4lessIjEELb1EEENS_9allocatorIS4_EEE7destroyEPNS_11__tree_nodeIS4_PvEE
000000010000c664 t __ZNSt3__16__treeINS_12__value_typeIjN16DNBArchMachARM647ContextEEENS_19__map_value_compareIjS4_NS_4lessIjEELb1EEENS_9allocatorIS4_EEE7destroyEPNS_11__tree_nodeIS4_PvEE
000000010000c664 t __ZNSt3__16__treeINS_12__value_typeIy11StackMemoryEENS_19__map_value_compareIyS3_NS_4lessIyEELb1EEENS_9allocatorIS3_EEE7destroyEPNS_11__tree_nodeIS3_PvEE
000000010000c664 t __ZNSt3__16__treeINS_12__value_typeIy13DNBBreakpointEENS_19__map_value_compareIyS3_NS_4lessIyEELb1EEENS_9allocatorIS3_EEE7destroyEPNS_11__tree_nodeIS3_PvEE
0000000100041b68 t __ZNSt3__16__treeINS_12__value_typeIyNS_10shared_ptrIN9Genealogy14ThreadActivityEEEEENS_19__map_value_compareIyS6_NS_4lessIyEELb1EEENS_9allocatorIS6_EEE7destroyEPNS_11__tree_nodeIS6_PvEE
000000010000c664 t __ZNSt3__16__treeINS_12__value_typeIymEENS_19__map_value_compareIyS2_NS_4lessIyEELb1EEENS_9allocatorIS2_EEE7destroyEPNS_11__tree_nodeIS2_PvEE
000000010000c664 t __ZNSt3__16__treeINS_12__value_typeIyyEENS_19__map_value_compareIyS2_NS_4lessIyEELb1EEENS_9allocatorIS2_EEE7destroyEPNS_11__tree_nodeIS2_PvEE
                 U __ZNSt3__16localeD1Ev
00000001000123f0 t __ZNSt3__16vectorI10kinfo_procNS_9allocatorIS1_EEE8__appendEm
0000000100031238 t __ZNSt3__16vectorI18register_map_entryNS_9allocatorIS1_EEE21__push_back_slow_pathIRKS1_EEvOT_
0000000100029b0c t __ZNSt3__16vectorI18register_map_entryNS_9allocatorIS1_EEED1Ev
0000000100013450 t __ZNSt3__16vectorI21DNBThreadResumeActionNS_9allocatorIS1_EEE6assignIPKS1_EENS_9enable_ifIXaasr27__is_cpp17_forward_iteratorIT_EE5valuesr16is_constructibleIS1_NS_15iterator_traitsIS9_E9referenceEEE5valueEvE4typeES9_S9_
0000000100041ca0 t __ZNSt3__16vectorI21DNBThreadResumeActionNS_9allocatorIS1_EEE6assignIPS1_EENS_9enable_ifIXaasr27__is_cpp17_forward_iteratorIT_EE5valuesr16is_constructibleIS1_NS_15iterator_traitsIS8_E9referenceEEE5valueEvE4typeES8_S8_
00000001000335d8 t __ZNSt3__16vectorI6keventNS_9allocatorIS1_EEE8__appendEm
0000000100042e54 t __ZNSt3__16vectorIN11MachProcess14mach_o_segmentENS_9allocatorIS2_EEE21__push_back_slow_pathIRKS2_EEvOT_
0000000100043680 t __ZNSt3__16vectorIN11MachProcess14mach_o_segmentENS_9allocatorIS2_EEEC2ERKS5_
0000000100050e88 t __ZNSt3__16vectorIN11MachProcess14mach_o_segmentENS_9allocatorIS2_EEEC2ERKS5_.cold.1
0000000100043344 t __ZNSt3__16vectorIN11MachProcess24binary_image_informationENS_9allocatorIS2_EEE21__push_back_slow_pathIRKS2_EEvOT_
0000000100043794 t __ZNSt3__16vectorIN13MachException7MessageENS_9allocatorIS2_EEE21__push_back_slow_pathIRKS2_EEvOT_
0000000100037540 t __ZNSt3__16vectorIN13MachException7MessageENS_9allocatorIS2_EEED1Ev
000000010004d6f4 t __ZNSt3__16vectorIN14DNBArchMachARM19disabled_watchpointENS_9allocatorIS2_EEE8__appendEm
0000000100050874 t __ZNSt3__16vectorIN16DNBArchMachARM6419disabled_watchpointENS_9allocatorIS2_EEE8__appendEm
00000001000354e8 t __ZNSt3__16vectorIN9Genealogy10BreadcrumbENS_9allocatorIS2_EEE21__push_back_slow_pathIRKS2_EEvOT_
000000010003588c t __ZNSt3__16vectorIN9Genealogy7MessageENS_9allocatorIS2_EEE21__push_back_slow_pathIRKS2_EEvOT_
0000000100035668 t __ZNSt3__16vectorIN9Genealogy8ActivityENS_9allocatorIS2_EEE21__push_back_slow_pathIRKS2_EEvOT_
000000010003071c t __ZNSt3__16vectorIN9RNBRemote6PacketENS_9allocatorIS2_EEE21__push_back_slow_pathIS2_EEvOT_
0000000100049820 t __ZNSt3__16vectorINS_10shared_ptrI10MachThreadEENS_9allocatorIS3_EEE21__push_back_slow_pathIRKS3_EEvOT_
000000010002fea4 t __ZNSt3__16vectorINS_10shared_ptrIN13JSONGenerator6ObjectEEENS_9allocatorIS4_EEE21__push_back_slow_pathIRKS4_EEvOT_
0000000100035b10 t __ZNSt3__16vectorINS_10shared_ptrIN9Genealogy21ProcessExecutableInfoEEENS_9allocatorIS4_EEE21__push_back_slow_pathIRKS4_EEvOT_
000000010000bf0c t __ZNSt3__16vectorINS_12basic_stringIcNS_11char_traitsIcEENS_9allocatorIcEEEENS4_IS6_EEE21__push_back_slow_pathIS6_EEvOT_
00000001000375f0 t __ZNSt3__16vectorINS_12basic_stringIcNS_11char_traitsIcEENS_9allocatorIcEEEENS4_IS6_EEED1Ev
000000010003005c t __ZNSt3__16vectorINS_4pairINS_12basic_stringIcNS_11char_traitsIcEENS_9allocatorIcEEEENS_10shared_ptrIN13JSONGenerator6ObjectEEEEENS5_ISC_EEE21__push_back_slow_pathISC_EEvOT_
0000000100013d80 t __ZNSt3__16vectorIbNS_9allocatorIbEEE18__construct_at_endINS_14__bit_iteratorIS3_Lb0ELm0EEEEENS_9enable_ifIXsr27__is_cpp17_forward_iteratorIT_EE5valueEvE4typeES8_S8_
00000001000135f8 t __ZNSt3__16vectorIbNS_9allocatorIbEEE6assignEmRKb
0000000100013cc4 t __ZNSt3__16vectorIbNS_9allocatorIbEEE7reserveEm
0000000100041bec t __ZNSt3__16vectorIbNS_9allocatorIbEEEaSERKS3_
0000000100047290 t __ZNSt3__16vectorIxNS_9allocatorIxEEE6assignIPxEENS_9enable_ifIXaasr27__is_cpp17_forward_iteratorIT_EE5valuesr16is_constructibleIxNS_15iterator_traitsIS7_E9referenceEEE5valueEvE4typeES7_S7_
                 U __ZNSt3__18ios_base4initEPv
                 U __ZNSt3__18ios_base5clearEj
00000001000313d8 t __ZNSt3__19allocatorI18register_map_entryE9constructIS1_JRKS1_EEEvPT_DpOT0_
0000000100043280 t __ZNSt3__19allocatorIN11MachProcess24binary_image_informationEE7destroyEPS2_
                 U __ZNSt3__19basic_iosIcNS_11char_traitsIcEEED2Ev
                 U __ZNSt3__19to_stringEj
0000000100051e98 s __ZNSt3__1L19piecewise_constructE
                 U __ZNSt3__1plIcNS_11char_traitsIcEENS_9allocatorIcEEEENS_12basic_stringIT_T0_T1_EEPKS6_RKS9_
                 U __ZSt9terminatev
0000000100063478 S __ZTI14DNBArchMachARM
0000000100063468 s __ZTI15DNBArchProtocol
0000000100067b90 S __ZTI16DNBArchMachARM64
0000000100061500 S __ZTI8MachTask
                 U __ZTISt12length_error
0000000100052050 S __ZTS14DNBArchMachARM
0000000100052061 s __ZTS15DNBArchProtocol
00000001000520b0 S __ZTS16DNBArchMachARM64
0000000100051fa0 S __ZTS8MachTask
                 U __ZTTNSt3__119basic_istringstreamIcNS_11char_traitsIcEENS_9allocatorIcEEEE
                 U __ZTTNSt3__119basic_ostringstreamIcNS_11char_traitsIcEENS_9allocatorIcEEEE
0000000100061250 s __ZTV10CFReleaserIP10__CFBundleE
00000001000612b0 s __ZTV10CFReleaserIPK10__CFStringE
0000000100061270 s __ZTV10CFReleaserIPK7__CFURLE
0000000100060cf0 S __ZTV10RNBContext
0000000100063360 S __ZTV14DNBArchMachARM
0000000100067a90 S __ZTV16DNBArchMachARM64
0000000100060cd0 S __ZTV18StdStringExtractor
0000000100061230 S __ZTV8CFBundle
0000000100061290 S __ZTV8CFString
00000001000614e0 S __ZTV8MachTask
                 U __ZTVN10__cxxabiv117__class_type_infoE
                 U __ZTVN10__cxxabiv120__si_class_type_infoE
0000000100060d10 s __ZTVN13JSONGenerator10DictionaryE
0000000100060d80 s __ZTVN13JSONGenerator5ArrayE
0000000100060df0 s __ZTVN13JSONGenerator6StringE
0000000100060e60 s __ZTVN13JSONGenerator7BooleanE
0000000100060db8 s __ZTVN13JSONGenerator7IntegerE
                 U __ZTVNSt3__115basic_stringbufIcNS_11char_traitsIcEENS_9allocatorIcEEEE
                 U __ZTVNSt3__119basic_istringstreamIcNS_11char_traitsIcEENS_9allocatorIcEEEE
                 U __ZTVNSt3__119basic_ostringstreamIcNS_11char_traitsIcEENS_9allocatorIcEEEE
0000000100061538 s __ZTVNSt3__120__shared_ptr_emplaceI10MachThreadNS_9allocatorIS1_EEEE
0000000100060c08 s __ZTVNSt3__120__shared_ptr_emplaceI9RNBRemoteNS_9allocatorIS1_EEEE
0000000100060ed0 s __ZTVNSt3__120__shared_ptr_emplaceIN13JSONGenerator5ArrayENS_9allocatorIS2_EEEE
0000000100060c40 s __ZTVNSt3__120__shared_ptr_pointerIP11MachProcessNS_10shared_ptrIS1_E27__shared_ptr_default_deleteIS1_S1_EENS_9allocatorIS1_EEEE
0000000100060f08 s __ZTVNSt3__120__shared_ptr_pointerIPN13JSONGenerator10DictionaryENS_10shared_ptrIS2_E27__shared_ptr_default_deleteIS2_S2_EENS_9allocatorIS2_EEEE
0000000100060f40 s __ZTVNSt3__120__shared_ptr_pointerIPN13JSONGenerator5ArrayENS_10shared_ptrIS2_E27__shared_ptr_default_deleteIS2_S2_EENS_9allocatorIS2_EEEE
0000000100060e28 s __ZTVNSt3__120__shared_ptr_pointerIPN13JSONGenerator6StringENS_10shared_ptrINS1_6ObjectEE27__shared_ptr_default_deleteIS5_S2_EENS_9allocatorIS2_EEEE
0000000100060e98 s __ZTVNSt3__120__shared_ptr_pointerIPN13JSONGenerator7BooleanENS_10shared_ptrINS1_6ObjectEE27__shared_ptr_default_deleteIS5_S2_EENS_9allocatorIS2_EEEE
0000000100060d48 s __ZTVNSt3__120__shared_ptr_pointerIPN13JSONGenerator7IntegerENS_10shared_ptrINS1_6ObjectEE27__shared_ptr_default_deleteIS5_S2_EENS_9allocatorIS2_EEEE
0000000100060f78 s __ZTVNSt3__120__shared_ptr_pointerIPN13JSONGenerator7IntegerENS_10shared_ptrIS2_E27__shared_ptr_default_deleteIS2_S2_EENS_9allocatorIS2_EEEE
0000000100061428 s __ZTVNSt3__120__shared_ptr_pointerIPN9Genealogy14ThreadActivityENS_10shared_ptrIS2_E27__shared_ptr_default_deleteIS2_S2_EENS_9allocatorIS2_EEEE
00000001000613f0 s __ZTVNSt3__120__shared_ptr_pointerIPN9Genealogy21ProcessExecutableInfoENS_10shared_ptrIS2_E27__shared_ptr_default_deleteIS2_S2_EENS_9allocatorIS2_EEEE
                 U __ZTVSt12length_error
0000000100071b90 b __ZZ14ASLLogCallbackPvjPKcPcE8g_aslmsg
0000000100071bd8 b __ZZ15_DNBLogThreadedE2tv
0000000100071c38 b __ZZ15_DNBLogThreadedE5delta.0
0000000100071c40 b __ZZ15_DNBLogThreadedE5delta.1
0000000100071bc8 b __ZZ15_DNBLogThreadedE9g_timeval
0000000100068a28 d __ZZ9CPUHasAMXvE9g_has_avx
0000000100071ba8 b __ZZL13GetProcessMapbE17g_process_map_ptr
0000000100068588 d __ZZL13GetProcessMapbE19g_process_map_mutex
0000000100472140 b __ZZL13GetSequenceIDvE8g_nextID
0000000100471d10 b __ZZL14GetHostCPUTypeRjS_S_RbE14g_host_cputype
0000000100471d1c b __ZZL14GetHostCPUTypeRjS_S_RbE16g_promoted_to_64
0000000100471d14 b __ZZL14GetHostCPUTypeRjS_S_RbE17g_host_cpusubtype
0000000100471d18 b __ZZL14GetHostCPUTypeRjS_S_RbE19g_is_64_bit_capable
0000000100071bf0 b __ZZL15_DNBLogVAPrintfjPKcPcE18g_LogThreadedMutex
0000000100471d20 b __ZZL17GetAddressingBitsRjE17g_addressing_bits
0000000100471d24 b __ZZL17GetAddressingBitsRjE31g_tried_addressing_bits_syscall
0000000100472160 b __ZZL17GetPhysicalMemoryvE10calculated
0000000100472158 b __ZZL17GetPhysicalMemoryvE15physical_memory
0000000100472148 b __ZZN12MachVMMemory16GetMemoryProfileE22DNBProfileDataScanTypej15task_basic_infoiiR15vm_statistics64RyS4_S4_S4_E9localHost
00000001000685e0 d __ZZN14DNBArchMachARM31NumSupportedHardwareBreakpointsEvE30g_num_supported_hw_breakpoints
00000001000685e4 d __ZZN14DNBArchMachARM31NumSupportedHardwareWatchpointsEvE30g_num_supported_hw_watchpoints
0000000100068a30 d __ZZN16DNBArchMachARM6431NumSupportedHardwareBreakpointsEvE30g_num_supported_hw_breakpoints
0000000100068a2c d __ZZN16DNBArchMachARM6431NumSupportedHardwareWatchpointsEvE30g_num_supported_hw_watchpoints
00000001000685d8 d __ZZN8MachTask14GetProfileDataE22DNBProfileDataScanTypeE6numCPU
0000000100471d30 b __ZZN8MachTask14GetProfileDataE22DNBProfileDataScanTypeE8pagesize
0000000100071c78 b __ZZN9RNBRemote14CompressStringERKNSt3__112basic_stringIcNS0_11char_traitsIcEENS0_9allocatorIcEEEEE24g_libcompress_scratchbuf
00000001000685c8 d __ZZN9RNBRemote14CompressStringERKNSt3__112basic_stringIcNS0_11char_traitsIcEENS0_9allocatorIcEEEEE29g_libcompress_scratchbuf_type
0000000100071c80 b __ZZN9RNBRemote17HandleAsyncPacketEPNS_10PacketEnumEE13g_packetTimer
0000000100071ca0 b __ZZN9RNBRemote20HandleReceivedPacketEPNS_10PacketEnumEE13g_packetTimer
0000000100071ce8 b __ZZN9RNBRemote23HandlePacket_qSpeedTestEPKcE6g_data
0000000100471d40 b __ZZNK10MachThread20GetBasicInfoAsStringEvE19g_basic_info_string
                 U __ZdlPv
                 U __Znwm
00000001000345f0 t ___Block_byref_object_copy_
000000010003f2bc t ___Block_byref_object_copy_
0000000100034690 t ___Block_byref_object_copy_.10
0000000100034740 t ___Block_byref_object_copy_.12
00000001000347e0 t ___Block_byref_object_copy_.14
00000001000423b0 t ___Block_byref_object_copy_.264
0000000100034614 t ___Block_byref_object_dispose_
000000010003f2cc t ___Block_byref_object_dispose_
00000001000346b4 t ___Block_byref_object_dispose_.11
0000000100034764 t ___Block_byref_object_dispose_.13
000000010003481c t ___Block_byref_object_dispose_.15
00000001000423cc t ___Block_byref_object_dispose_.265
                 U ___CFConstantStringClassReference
00000001000423e0 t ____ZL37CallBoardSystemServiceOpenApplicationI16BKSSystemService27BKSOpenApplicationErrorCodeLS1_0EXadL_ZL11SetBKSErrorlNSt3__112basic_stringIcNS2_11char_traitsIcEENS2_9allocatorIcEEEER8DNBErrorEEEbP8NSStringP12NSDictionarySA_Pi_block_invoke
0000000100042aa0 t ____ZL37CallBoardSystemServiceOpenApplicationI16FBSSystemService27FBSOpenApplicationErrorCodeLS1_0EXadL_ZL11SetFBSErrorlNSt3__112basic_stringIcNS2_11char_traitsIcEENS2_9allocatorIcEEEER8DNBErrorEEEbP8NSStringP12NSDictionarySA_Pi_block_invoke
00000001000333f4 t ____ZL58DVTSecureSocketProxy_CreateWithLockdownConnectionFunctionsP20_lockdown_connectionPFiS0_EPFlS0_PvmEPFlS0_PKvmEU13block_pointerFvvE_block_invoke
00000001000333fc t ____ZL58DVTSecureSocketProxy_CreateWithLockdownConnectionFunctionsP20_lockdown_connectionPFiS0_EPFlS0_PvmEPFlS0_PKvmEU13block_pointerFvvE_block_invoke_2
000000010003f2d8 t ____ZN11MachProcess16PrepareForAttachEPKc19nub_launch_flavor_tbR8DNBError_block_invoke
0000000100039fdc t ____ZN11MachProcess30GetAllLoadedBinariesViaDYLDSPIERNSt3__16vectorINS_24binary_image_informationENS0_9allocatorIS2_EEEE_block_invoke
000000010003482c t ____ZN9Genealogy13GetActivitiesEiRK14MachThreadListj_block_invoke
0000000100034ce0 t ____ZN9Genealogy13GetActivitiesEiRK14MachThreadListj_block_invoke.17
0000000100034de4 t ____ZN9Genealogy13GetActivitiesEiRK14MachThreadListj_block_invoke.20
000000010003508c t ____ZN9Genealogy13GetActivitiesEiRK14MachThreadListj_block_invoke.23
00000001000348cc t ____ZN9Genealogy13GetActivitiesEiRK14MachThreadListj_block_invoke_2
0000000100034c04 t ____ZN9Genealogy13GetActivitiesEiRK14MachThreadListj_block_invoke_3
0000000100032f64 t ____ZN9RNBSocket16ConnectToServiceEb_block_invoke
0000000100061460 s ___block_descriptor_40_e19_v32?0Q8[16C]16r*24l
00000001000610d8 s ___block_descriptor_40_e5_v8?0l
00000001000610f8 s ___block_descriptor_48_e12_q24?0^v8Q16l
0000000100061118 s ___block_descriptor_48_e13_q24?0r^v8Q16l
0000000100061480 s ___block_descriptor_56_e8_32o40r48r_e17_v16?0"NSError"8l
00000001000614b0 s ___block_descriptor_89_e8_32o40o48r56r64r72r_e17_v16?0"NSError"8l
00000001000612d0 s ___block_descriptor_tmp
0000000100061300 s ___block_descriptor_tmp.19
0000000100061330 s ___block_descriptor_tmp.22
0000000100061360 s ___block_descriptor_tmp.24
0000000100061390 s ___block_descriptor_tmp.26
00000001000613c0 s ___block_descriptor_tmp.28
                 U ___chkstk_darwin
0000000100037b84 t ___clang_call_terminate
0000000100034cc4 t ___copy_helper_block_8_32r
0000000100035340 t ___copy_helper_block_8_32r40r48r56r
00000001000353e4 t ___copy_helper_block_8_32r40r48r56r64r
0000000100042594 t ___copy_helper_block_e8_32o40o48r56r64r72r
000000010003f32c t ___copy_helper_block_e8_32o40r48r
                 U ___cxa_allocate_exception
                 U ___cxa_atexit
                 U ___cxa_begin_catch
                 U ___cxa_free_exception
                 U ___cxa_guard_acquire
                 U ___cxa_guard_release
                 U ___cxa_throw
                 U ___darwin_check_fd_set_overflow
0000000100034cd4 t ___destroy_helper_block_8_32r
000000010003539c t ___destroy_helper_block_8_32r40r48r56r
0000000100035450 t ___destroy_helper_block_8_32r40r48r56r64r
0000000100042610 t ___destroy_helper_block_e8_32o40o48r56r64r72r
000000010003f378 t ___destroy_helper_block_e8_32o40r48r
                 U ___error
                 U ___gxx_personality_v0
                 U ___kCFBooleanTrue
                 U ___maskrune
                 U ___stack_chk_fail
                 U ___stack_chk_guard
                 U ___stderrp
                 U ___stdoutp
                 U ___tolower
                 U __exit
                 U __get_cpu_capabilities
0000000100000000 T __mh_execute_header
                 U _abort
                 U _accept
                 U _asl_new
                 U _asl_set
                 U _asl_vlog
                 U _atoi
                 U _bind
                 U _bzero
0000000100061570 S _catch_mach_exc_subsystem
0000000100035f18 T _catch_mach_exception_raise
0000000100035c60 T _catch_mach_exception_raise_state
0000000100035d9c T _catch_mach_exception_raise_state_identity
                 U _chdir
                 U _chmod
                 U _close
0000000100068164 D _communication_fd
                 U _compression_encode_buffer
                 U _compression_encode_scratch_buffer_size
                 U _connect
0000000100052020 S _debugserverVersionNumber
0000000100051ff0 S _debugserverVersionString
                 U _dispatch_release
                 U _dispatch_semaphore_create
                 U _dispatch_semaphore_signal
                 U _dispatch_semaphore_wait
                 U _dispatch_time
                 U _dlsym
                 U _dup2
                 U _execl
                 U _execv
                 U _exit
                 U _fflush
                 U _fopen
                 U _fork
                 U _fprintf
                 U _fputc
                 U _fputs
                 U _free
                 U _freeaddrinfo
                 U _fwrite
0000000100071b68 S _g_arch_plugins
0000000100068628 D _g_contained_q0
0000000100068638 D _g_contained_q1
00000001000686c8 D _g_contained_q10
00000001000686d8 D _g_contained_q11
00000001000686e8 D _g_contained_q12
00000001000686f8 D _g_contained_q13
0000000100068708 D _g_contained_q14
0000000100068718 D _g_contained_q15
0000000100068648 D _g_contained_q2
0000000100068658 D _g_contained_q3
0000000100068668 D _g_contained_q4
0000000100068678 D _g_contained_q5
0000000100068688 D _g_contained_q6
0000000100068698 D _g_contained_q7
00000001000686a8 D _g_contained_q8
00000001000686b8 D _g_contained_q9
0000000100068ec0 D _g_contained_v0
0000000100068ed0 D _g_contained_v1
0000000100068f60 D _g_contained_v10
0000000100068f70 D _g_contained_v11
0000000100068f80 D _g_contained_v12
0000000100068f90 D _g_contained_v13
0000000100068fa0 D _g_contained_v14
0000000100068fb0 D _g_contained_v15
0000000100068fc0 D _g_contained_v16
0000000100068fd0 D _g_contained_v17
0000000100068fe0 D _g_contained_v18
0000000100068ff0 D _g_contained_v19
0000000100068ee0 D _g_contained_v2
0000000100069000 D _g_contained_v20
0000000100069010 D _g_contained_v21
0000000100069020 D _g_contained_v22
0000000100069030 D _g_contained_v23
0000000100069040 D _g_contained_v24
0000000100069050 D _g_contained_v25
0000000100069060 D _g_contained_v26
0000000100069070 D _g_contained_v27
0000000100069080 D _g_contained_v28
0000000100069090 D _g_contained_v29
0000000100068ef0 D _g_contained_v3
00000001000690a0 D _g_contained_v30
00000001000690b0 D _g_contained_v31
0000000100068f00 D _g_contained_v4
0000000100068f10 D _g_contained_v5
0000000100068f20 D _g_contained_v6
0000000100068f30 D _g_contained_v7
0000000100068f40 D _g_contained_v8
0000000100068f50 D _g_contained_v9
0000000100068a38 D _g_contained_x0
0000000100068a48 D _g_contained_x1
0000000100068ad8 D _g_contained_x10
0000000100068ae8 D _g_contained_x11
0000000100068af8 D _g_contained_x12
0000000100068b08 D _g_contained_x13
0000000100068b18 D _g_contained_x14
0000000100068b28 D _g_contained_x15
0000000100068b38 D _g_contained_x16
0000000100068b48 D _g_contained_x17
0000000100068b58 D _g_contained_x18
0000000100068b68 D _g_contained_x19
0000000100068a58 D _g_contained_x2
0000000100068b78 D _g_contained_x20
0000000100068b88 D _g_contained_x21
0000000100068b98 D _g_contained_x22
0000000100068ba8 D _g_contained_x23
0000000100068bb8 D _g_contained_x24
0000000100068bc8 D _g_contained_x25
0000000100068bd8 D _g_contained_x26
0000000100068be8 D _g_contained_x27
0000000100068bf8 D _g_contained_x28
0000000100068a68 D _g_contained_x3
0000000100068a78 D _g_contained_x4
0000000100068a88 D _g_contained_x5
0000000100068a98 D _g_contained_x6
0000000100068aa8 D _g_contained_x7
0000000100068ab8 D _g_contained_x8
0000000100068ac8 D _g_contained_x9
0000000100068160 D _g_detach_on_error
0000000100071b58 S _g_disable_aslr
00000001000694c0 D _g_invalidate_amx_x0
0000000100069508 D _g_invalidate_amx_x1
0000000100069550 D _g_invalidate_amx_x2
0000000100069598 D _g_invalidate_amx_x3
00000001000695e0 D _g_invalidate_amx_x4
0000000100069628 D _g_invalidate_amx_x5
0000000100069670 D _g_invalidate_amx_x6
00000001000696b8 D _g_invalidate_amx_x7
0000000100069700 D _g_invalidate_amx_y0
0000000100069748 D _g_invalidate_amx_y1
0000000100069790 D _g_invalidate_amx_y2
00000001000697d8 D _g_invalidate_amx_y3
0000000100069820 D _g_invalidate_amx_y4
0000000100069868 D _g_invalidate_amx_y5
00000001000698b0 D _g_invalidate_amx_y6
00000001000698f8 D _g_invalidate_amx_y7
0000000100069940 D _g_invalidate_amx_z0
0000000100069b48 D _g_invalidate_amx_z1
000000010006ad90 D _g_invalidate_amx_z10
000000010006af98 D _g_invalidate_amx_z11
000000010006b1a0 D _g_invalidate_amx_z12
000000010006b3a8 D _g_invalidate_amx_z13
000000010006b5b0 D _g_invalidate_amx_z14
000000010006b7b8 D _g_invalidate_amx_z15
000000010006b9c0 D _g_invalidate_amx_z16
000000010006bbc8 D _g_invalidate_amx_z17
000000010006bdd0 D _g_invalidate_amx_z18
000000010006bfd8 D _g_invalidate_amx_z19
0000000100069d50 D _g_invalidate_amx_z2
000000010006c1e0 D _g_invalidate_amx_z20
000000010006c3e8 D _g_invalidate_amx_z21
000000010006c5f0 D _g_invalidate_amx_z22
000000010006c7f8 D _g_invalidate_amx_z23
000000010006ca00 D _g_invalidate_amx_z24
000000010006cc08 D _g_invalidate_amx_z25
000000010006ce10 D _g_invalidate_amx_z26
000000010006d018 D _g_invalidate_amx_z27
000000010006d220 D _g_invalidate_amx_z28
000000010006d428 D _g_invalidate_amx_z29
0000000100069f58 D _g_invalidate_amx_z3
000000010006d630 D _g_invalidate_amx_z30
000000010006d838 D _g_invalidate_amx_z31
000000010006da40 D _g_invalidate_amx_z32
000000010006dc48 D _g_invalidate_amx_z33
000000010006de50 D _g_invalidate_amx_z34
000000010006e058 D _g_invalidate_amx_z35
000000010006e260 D _g_invalidate_amx_z36
000000010006e468 D _g_invalidate_amx_z37
000000010006e670 D _g_invalidate_amx_z38
000000010006e878 D _g_invalidate_amx_z39
000000010006a160 D _g_invalidate_amx_z4
000000010006ea80 D _g_invalidate_amx_z40
000000010006ec88 D _g_invalidate_amx_z41
000000010006ee90 D _g_invalidate_amx_z42
000000010006f098 D _g_invalidate_amx_z43
000000010006f2a0 D _g_invalidate_amx_z44
000000010006f4a8 D _g_invalidate_amx_z45
000000010006f6b0 D _g_invalidate_amx_z46
000000010006f8b8 D _g_invalidate_amx_z47
000000010006fac0 D _g_invalidate_amx_z48
000000010006fcc8 D _g_invalidate_amx_z49
000000010006a368 D _g_invalidate_amx_z5
000000010006fed0 D _g_invalidate_amx_z50
00000001000700d8 D _g_invalidate_amx_z51
00000001000702e0 D _g_invalidate_amx_z52
00000001000704e8 D _g_invalidate_amx_z53
00000001000706f0 D _g_invalidate_amx_z54
00000001000708f8 D _g_invalidate_amx_z55
0000000100070b00 D _g_invalidate_amx_z56
0000000100070d08 D _g_invalidate_amx_z57
0000000100070f10 D _g_invalidate_amx_z58
0000000100071118 D _g_invalidate_amx_z59
000000010006a570 D _g_invalidate_amx_z6
0000000100071320 D _g_invalidate_amx_z60
0000000100071528 D _g_invalidate_amx_z61
0000000100071730 D _g_invalidate_amx_z62
0000000100071938 D _g_invalidate_amx_z63
000000010006a778 D _g_invalidate_amx_z7
000000010006a980 D _g_invalidate_amx_z8
000000010006ab88 D _g_invalidate_amx_z9
00000001000685e8 D _g_invalidate_cpsr
0000000100068728 D _g_invalidate_q0
0000000100068768 D _g_invalidate_q1
0000000100068968 D _g_invalidate_q10
0000000100068988 D _g_invalidate_q11
00000001000689a8 D _g_invalidate_q12
00000001000689c8 D _g_invalidate_q13
00000001000689e8 D _g_invalidate_q14
0000000100068a08 D _g_invalidate_q15
00000001000687a8 D _g_invalidate_q2
00000001000687e8 D _g_invalidate_q3
0000000100068828 D _g_invalidate_q4
0000000100068868 D _g_invalidate_q5
00000001000688a8 D _g_invalidate_q6
00000001000688e8 D _g_invalidate_q7
0000000100068928 D _g_invalidate_q8
0000000100068948 D _g_invalidate_q9
00000001000690c0 D _g_invalidate_v0
00000001000690e0 D _g_invalidate_v1
0000000100069200 D _g_invalidate_v10
0000000100069220 D _g_invalidate_v11
0000000100069240 D _g_invalidate_v12
0000000100069260 D _g_invalidate_v13
0000000100069280 D _g_invalidate_v14
00000001000692a0 D _g_invalidate_v15
00000001000692c0 D _g_invalidate_v16
00000001000692e0 D _g_invalidate_v17
0000000100069300 D _g_invalidate_v18
0000000100069320 D _g_invalidate_v19
0000000100069100 D _g_invalidate_v2
0000000100069340 D _g_invalidate_v20
0000000100069360 D _g_invalidate_v21
0000000100069380 D _g_invalidate_v22
00000001000693a0 D _g_invalidate_v23
00000001000693c0 D _g_invalidate_v24
00000001000693e0 D _g_invalidate_v25
0000000100069400 D _g_invalidate_v26
0000000100069420 D _g_invalidate_v27
0000000100069440 D _g_invalidate_v28
0000000100069460 D _g_invalidate_v29
0000000100069120 D _g_invalidate_v3
0000000100069480 D _g_invalidate_v30
00000001000694a0 D _g_invalidate_v31
0000000100069140 D _g_invalidate_v4
0000000100069160 D _g_invalidate_v5
0000000100069180 D _g_invalidate_v6
00000001000691a0 D _g_invalidate_v7
00000001000691c0 D _g_invalidate_v8
00000001000691e0 D _g_invalidate_v9
0000000100068c08 D _g_invalidate_x0
0000000100068c20 D _g_invalidate_x1
0000000100068cf8 D _g_invalidate_x10
0000000100068d10 D _g_invalidate_x11
0000000100068d28 D _g_invalidate_x12
0000000100068d40 D _g_invalidate_x13
0000000100068d58 D _g_invalidate_x14
0000000100068d70 D _g_invalidate_x15
0000000100068d88 D _g_invalidate_x16
0000000100068da0 D _g_invalidate_x17
0000000100068db8 D _g_invalidate_x18
0000000100068dd0 D _g_invalidate_x19
0000000100068c38 D _g_invalidate_x2
0000000100068de8 D _g_invalidate_x20
0000000100068e00 D _g_invalidate_x21
0000000100068e18 D _g_invalidate_x22
0000000100068e30 D _g_invalidate_x23
0000000100068e48 D _g_invalidate_x24
0000000100068e60 D _g_invalidate_x25
0000000100068e78 D _g_invalidate_x26
0000000100068e90 D _g_invalidate_x27
0000000100068ea8 D _g_invalidate_x28
0000000100068c50 D _g_invalidate_x3
0000000100068c68 D _g_invalidate_x4
0000000100068c80 D _g_invalidate_x5
0000000100068c98 D _g_invalidate_x6
0000000100068cb0 D _g_invalidate_x7
0000000100068cc8 D _g_invalidate_x8
0000000100068ce0 D _g_invalidate_x9
0000000100071b5c S _g_isatty
0000000100071b80 S _g_log_bits
0000000100071b40 S _g_pid
0000000100071b48 S _g_remoteSP
0000000100071b60 S _g_sigint_received
0000000100071b64 S _g_sigpipe_received
                 U _getaddrinfo
                 U _getenv
                 U _geteuid
                 U _getgid
                 U _getopt_long_only
                 U _getpgid
                 U _getpid
                 U _getpwuid
                 U _getsockname
                 U _gettimeofday
                 U _getuid
                 U _glob
                 U _globfree
                 U _grantpt
                 U _host_page_size
                 U _host_statistics
                 U _host_statistics64
                 U _in6addr_any
                 U _in6addr_loopback
                 U _inet_ntop
                 U _ioctl
                 U _isatty
                 U _kCFAllocatorDefault
                 U _kCFBooleanFalse
                 U _kCFBooleanTrue
                 U _kCFTypeArrayCallBacks
                 U _kCFTypeDictionaryKeyCallBacks
                 U _kCFTypeDictionaryValueCallBacks
00000001000685d0 D _k_space_delimiters
                 U _kevent
                 U _kill
                 U _kqueue
                 U _listen
                 U _lockdown_disconnect
                 U _lockdown_get_socket
                 U _lockdown_recv
                 U _lockdown_send
                 U _mach_absolute_time
                 U _mach_error_string
000000010004b15c T _mach_exc_server
000000010004add8 T _mach_exc_server_routine
                 U _mach_host_self
                 U _mach_msg
                 U _mach_port_allocate
                 U _mach_port_deallocate
                 U _mach_port_insert_right
                 U _mach_task_self_
                 U _mach_thread_self
                 U _mach_vm_allocate
                 U _mach_vm_deallocate
                 U _mach_vm_page_range_query
                 U _mach_vm_protect
                 U _mach_vm_read
                 U _mach_vm_region_recurse
                 U _mach_vm_write
0000000100009c6c T _main
                 U _malloc
                 U _memchr
                 U _memcmp
                 U _memcpy
                 U _memmove
                 U _memorystatus_control
                 U _memset
                 U _objc_alloc
                 U _objc_alloc_init
                 U _objc_autoreleasePoolPop
                 U _objc_autoreleasePoolPush
                 U _objc_msgSend
                 U _objc_release
                 U _open
                 U _optarg
                 U _optind
                 U _optreset
                 U _perror
                 U _pid_for_task
                 U _pm_energy_impact
                 U _pm_sample_task_and_pid
                 U _posix_openpt
                 U _posix_spawn_file_actions_addopen
                 U _posix_spawn_file_actions_destroy
                 U _posix_spawn_file_actions_init
                 U _posix_spawnattr_destroy
                 U _posix_spawnattr_init
                 U _posix_spawnattr_setbinpref_np
                 U _posix_spawnattr_setflags
                 U _posix_spawnattr_setsigdefault
                 U _posix_spawnattr_setsigmask
                 U _posix_spawnp
                 U _printf
                 U _proc_get_cpumon_params
                 U _proc_pid_rusage
                 U _proc_pidinfo
                 U _proc_pidpath
                 U _proc_set_wakemon_params
                 U _pthread_cancel
                 U _pthread_cond_broadcast
                 U _pthread_cond_destroy
                 U _pthread_cond_init
                 U _pthread_cond_timedwait
                 U _pthread_cond_wait
                 U _pthread_create
                 U _pthread_detach
                 U _pthread_getschedparam
                 U _pthread_join
                 U _pthread_mutex_destroy
                 U _pthread_mutex_init
                 U _pthread_mutex_lock
                 U _pthread_mutex_unlock
                 U _pthread_mutexattr_destroy
                 U _pthread_mutexattr_init
                 U _pthread_mutexattr_settype
                 U _pthread_self
                 U _pthread_setname_np
                 U _pthread_setschedparam
                 U _pthread_testcancel
                 U _ptrace
                 U _ptsname
                 U _read
                 U _realpath$DARWIN_EXTSN
                 U _secure_lockdown_checkin
                 U _select
                 U _send
                 U _setgid
                 U _setlinebuf
                 U _setpgid
                 U _setsid
                 U _setsockopt
                 U _signal
                 U _sigprocmask
                 U _sleep
                 U _snprintf
                 U _socket
                 U _sscanf
                 U _stat
                 U _strcasecmp
                 U _strcasestr
                 U _strcat
                 U _strchr
                 U _strcmp
                 U _strcspn
                 U _strerror
                 U _strerror_r
                 U _strlcpy
                 U _strlen
                 U _strncasecmp
                 U _strncmp
                 U _strrchr
                 U _strstr
                 U _strtol
                 U _strtoul
                 U _strtoull
                 U _sysctl
                 U _sysctlbyname
                 U _sysctlnametomib
                 U _task_for_pid
                 U _task_get_exception_ports
                 U _task_info
                 U _task_resume
                 U _task_set_exception_ports
                 U _task_set_state
                 U _task_suspend
                 U _task_threads
                 U _tcgetattr
                 U _tcsetattr
                 U _thread_abort_safely
                 U _thread_convert_thread_state
                 U _thread_get_state
                 U _thread_info
                 U _thread_resume
                 U _thread_set_state
                 U _thread_suspend
                 U _unlockpt
                 U _unsetenv
                 U _usleep
                 U _uuid_clear
                 U _uuid_compare
                 U _uuid_copy
                 U _uuid_unparse_upper
                 U _vasprintf
                 U _vfprintf
                 U _vm_deallocate
                 U _vm_kernel_page_size
                 U _vm_machine_attribute
                 U _vm_page_size
                 U _waitpid
                 U _write

com.example.cryptex.dstroot/usr/bin/debugserver (for architecture arm64e):
00000001000621cc s GCC_except_table0
0000000100062304 s GCC_except_table0
0000000100063044 s GCC_except_table1
0000000100063068 s GCC_except_table1
00000001000622d0 s GCC_except_table10
0000000100062b5c s GCC_except_table104
0000000100062b70 s GCC_except_table105
0000000100062b84 s GCC_except_table110
0000000100062bc8 s GCC_except_table111
0000000100062bdc s GCC_except_table112
0000000100062bf4 s GCC_except_table113
0000000100062c24 s GCC_except_table114
0000000100062c84 s GCC_except_table117
0000000100062cb4 s GCC_except_table118
00000001000623ec s GCC_except_table12
00000001000622e0 s GCC_except_table14
0000000100062e60 s GCC_except_table14
00000001000622f4 s GCC_except_table15
0000000100062e74 s GCC_except_table15
0000000100062ce4 s GCC_except_table169
0000000100062e88 s GCC_except_table17
0000000100063058 s GCC_except_table17
0000000100062d20 s GCC_except_table175
0000000100062d5c s GCC_except_table177
0000000100062400 s GCC_except_table18
0000000100062f60 s GCC_except_table18
0000000100062d7c s GCC_except_table180
0000000100062d94 s GCC_except_table182
0000000100062da4 s GCC_except_table188
0000000100062db4 s GCC_except_table195
0000000100062dcc s GCC_except_table196
0000000100062de8 s GCC_except_table197
0000000100062e04 s GCC_except_table199
0000000100062f78 s GCC_except_table20
0000000100063078 s GCC_except_table21
0000000100062f9c s GCC_except_table25
0000000100063008 s GCC_except_table26
0000000100062414 s GCC_except_table28
0000000100063024 s GCC_except_table28
000000010006248c s GCC_except_table29
0000000100062580 s GCC_except_table33
00000001000625c0 s GCC_except_table37
00000001000625dc s GCC_except_table38
0000000100062604 s GCC_except_table39
0000000100062280 s GCC_except_table4
0000000100062638 s GCC_except_table40
0000000100063034 s GCC_except_table41
0000000100062694 s GCC_except_table53
0000000100063088 s GCC_except_table53
00000001000626c8 s GCC_except_table56
0000000100062720 s GCC_except_table59
0000000100062748 s GCC_except_table61
0000000100062764 s GCC_except_table62
000000010006278c s GCC_except_table63
00000001000627d8 s GCC_except_table64
0000000100062810 s GCC_except_table65
000000010006282c s GCC_except_table66
00000001000623a0 s GCC_except_table7
0000000100062e24 s GCC_except_table7
000000010006285c s GCC_except_table71
0000000100062894 s GCC_except_table72
00000001000628d4 s GCC_except_table73
000000010006229c s GCC_except_table8
00000001000623d0 s GCC_except_table8
0000000100062e34 s GCC_except_table8
00000001000628fc s GCC_except_table81
000000010006293c s GCC_except_table82
00000001000629b0 s GCC_except_table87
00000001000629d8 s GCC_except_table88
00000001000622b4 s GCC_except_table9
0000000100062e44 s GCC_except_table9
0000000100062a04 s GCC_except_table90
0000000100062a44 s GCC_except_table91
0000000100062a74 s GCC_except_table92
0000000100062ab8 s GCC_except_table96
0000000100062b3c s GCC_except_table98
                 U _BKSActivateForEventOptionTypeBackgroundContentFetching
                 U _BKSDebugOptionKeyArguments
                 U _BKSDebugOptionKeyCancelDebugOnNextLaunch
                 U _BKSDebugOptionKeyDisableASLR
                 U _BKSDebugOptionKeyEnvironment
                 U _BKSDebugOptionKeyStandardErrorPath
                 U _BKSDebugOptionKeyStandardOutPath
                 U _BKSDebugOptionKeyWaitForDebugger
                 U _BKSOpenApplicationErrorCodeToString
                 U _BKSOpenApplicationOptionKeyActivateForEvent
                 U _BKSOpenApplicationOptionKeyActivateSuspended
                 U _BKSOpenApplicationOptionKeyDebuggingOptions
                 U _BKSOpenApplicationOptionKeyUnlockDevice
                 U _BKSWatchdogAssertionCreateForPID
                 U _CFArrayAppendValue
                 U _CFArrayCreateMutable
                 U _CFArrayGetCount
                 U _CFArrayGetValueAtIndex
                 U _CFBundleCopyExecutableURL
                 U _CFBundleCreate
                 U _CFBundleGetIdentifier
                 U _CFDataGetBytePtr
                 U _CFDataGetLength
                 U _CFDictionaryCreateMutable
                 U _CFDictionarySetValue
                 U _CFNumberCreate
                 U _CFPropertyListCreateXMLData
                 U _CFRelease
                 U _CFRetain
                 U _CFStringCompare
                 U _CFStringCreateWithCString
                 U _CFStringCreateWithFileSystemRepresentation
                 U _CFStringGetCString
                 U _CFStringGetLength
                 U _CFStringGetMaximumSizeForEncoding
                 U _CFURLCreateWithFileSystemPath
                 U _CFURLGetFileSystemRepresentation
0000000100010ab8 T _DNBLogCheckLogBit
0000000100010b00 T _DNBLogEnabled
0000000100010b14 T _DNBLogEnabledForAny
0000000100010af4 T _DNBLogGetLogCallback
0000000100010aa0 T _DNBLogSetDebug
0000000100010ae0 T _DNBLogSetLogCallback
0000000100010acc T _DNBLogSetLogMask
0000000100010aac T _DNBLogSetVerbose
                 U _DVTSecureSocketProxy_Create
                 U _FBSActivateForEventOptionTypeBackgroundContentFetching
                 U _FBSDebugOptionKeyArguments
                 U _FBSDebugOptionKeyCancelDebugOnNextLaunch
                 U _FBSDebugOptionKeyDebugOnNextLaunch
                 U _FBSDebugOptionKeyDisableASLR
                 U _FBSDebugOptionKeyEnvironment
                 U _FBSDebugOptionKeyStandardErrorPath
                 U _FBSDebugOptionKeyStandardOutPath
                 U _FBSDebugOptionKeyWaitForDebugger
                 U _FBSOpenApplicationErrorCodeToString
                 U _FBSOpenApplicationOptionKeyActivateForEvent
                 U _FBSOpenApplicationOptionKeyActivateSuspended
                 U _FBSOpenApplicationOptionKeyDebuggingOptions
                 U _FBSOpenApplicationOptionKeyLSCacheGUID
                 U _FBSOpenApplicationOptionKeyLSSequenceNumber
                 U _FBSOpenApplicationOptionKeyUnlockDevice
                 U _NDR_record
                 U _OBJC_CLASS_$_BKSApplicationStateMonitor
                 U _OBJC_CLASS_$_BKSSystemService
                 U _OBJC_CLASS_$_FBSSystemService
                 U _OBJC_CLASS_$_LSApplicationProxy
                 U _OBJC_CLASS_$_NSAutoreleasePool
                 U _OBJC_CLASS_$_NSDictionary
                 U _OBJC_CLASS_$_NSFileManager
                 U _OBJC_CLASS_$_NSMutableArray
                 U _OBJC_CLASS_$_NSMutableDictionary
                 U _OBJC_CLASS_$_NSNumber
                 U _OBJC_CLASS_$_NSProcessInfo
                 U _OBJC_CLASS_$_NSString
                 U _OBJC_CLASS_$_NSURL
00000001000097b4 t _OUTLINED_FUNCTION_0
00000001000460c4 t _OUTLINED_FUNCTION_0
00000001000460e8 t _OUTLINED_FUNCTION_1
00000001000461b0 t _OUTLINED_FUNCTION_10
00000001000461c4 t _OUTLINED_FUNCTION_11
000000010004610c t _OUTLINED_FUNCTION_2
0000000100046128 t _OUTLINED_FUNCTION_3
0000000100046138 t _OUTLINED_FUNCTION_4
0000000100046154 t _OUTLINED_FUNCTION_5
0000000100046168 t _OUTLINED_FUNCTION_6
000000010004617c t _OUTLINED_FUNCTION_7
0000000100046190 t _OUTLINED_FUNCTION_8
00000001000461a4 t _OUTLINED_FUNCTION_9
                 U _SBSCopyApplicationDisplayIdentifiers
                 U _SBSCopyExecutablePathForDisplayIdentifier
                 U _SBSCopyFrontmostApplicationDisplayIdentifier
                 U _SBSCopyIconImagePathForDisplayIdentifier
                 U _SBSCopyLocalizedApplicationNameForDisplayIdentifier
                 U _SBSProcessIDForDisplayIdentifier
                 U __Block_object_assign
                 U __Block_object_dispose
0000000100010b3c T __DNBLog
0000000100010c60 T __DNBLogDebug
0000000100010ecc T __DNBLogError
0000000100010d94 T __DNBLogThreaded
0000000100010f34 T __DNBLogWarning
                 U __DefaultRuneLocale
0000000100009bd4 t __GLOBAL__sub_I_DNBArch.cpp
0000000100033098 t __GLOBAL__sub_I_RNBRemote.cpp
00000001000097c8 t __GLOBAL__sub_I_debugserver.cpp
                 U __NSConcreteStackBlock
                 U __NSGetEnviron
                 U __Unwind_Resume
000000010004de68 t __Xmach_exception_raise
000000010004df38 t __Xmach_exception_raise_state
000000010004e058 t __Xmach_exception_raise_state_identity
000000010002b9fc T __Z11set_loggingPKc
000000010003317c T __Z12GetProcessesP9__CFArrayb
000000010000f6b0 T __Z13DNBInitializev
000000010002de94 T __Z13XMLElementEndRNSt3__119basic_ostringstreamIcNS_11char_traitsIcEENS_9allocatorIcEEEEjPKc
000000010000a5bc T __Z13kqueue_threadPv
0000000100006c30 T __Z14ASLLogCallbackPvjPKcPc
000000010000bc60 T __Z14DNBGetAllInfosRNSt3__16vectorI10kinfo_procNS_9allocatorIS1_EEEE
000000010000ccd4 T __Z14DNBGetPThreadTiy
000000010000c224 T __Z14DNBProcessKilli
0000000100006568 T __Z14signal_handleri
0000000100006d20 T __Z15FileLogCallbackPvjPKcPc
000000010002f474 T __Z15UpdateTargetXMLv
000000010002dd1c T __Z15XMLElementStartRNSt3__119basic_ostringstreamIcNS_11char_traitsIcEENS_9allocatorIcEEEEjPKcb
000000010004cb28 T __Z15get_dirty_pagesjyy
000000010000d4c0 T __Z16DNBBreakpointSetiymj
000000010000b540 T __Z16DNBProcessAttachiP8timespecbPcm
0000000100054520 t __Z16DNBProcessAttachiP8timespecbPcm.cold.1
000000010000c110 T __Z16DNBProcessDetachi
000000010000a9fc T __Z16DNBProcessLaunchP10RNBContextPKcPS2_S3_S2_S2_S2_S2_biS2_Pcm
000000010000d364 T __Z16DNBProcessResumeiPK21DNBThreadResumeActionm
000000010000c304 T __Z16DNBProcessSignalii
000000010000bb4c T __Z16DNBStateAsString11nub_state_t
000000010000e6c8 T __Z16DNBThreadGetInfoiy
000000010000c770 T __Z16DNBThreadGetNameiy
000000010000d678 T __Z16DNBWatchpointSetiymjj
00000001000334f4 T __Z16ListApplicationsRNSt3__112basic_stringIcNS_11char_traitsIcEENS_9allocatorIcEEEEbb
000000010000c93c T __Z17DNBThreadGetStateiy
000000010000d598 T __Z18DNBBreakpointCleariy
000000010000ba60 T __Z18DNBProcessGetStatei
000000010000f6f0 T __Z18DNBSetArchitecturePKc
000000010000d750 T __Z18DNBWatchpointCleariy
0000000100006af4 T __Z18RNBRunLoopPlatformP9RNBRemote
000000010002e00c T __Z18XMLAttributeStringRNSt3__119basic_ostringstreamIcNS_11char_traitsIcEENS_9allocatorIcEEEEPKcS8_S8_
0000000100029cb4 T __Z18decode_binary_dataPKcm
000000010000c3e4 T __Z19DNBProcessInterrupti
000000010000c4bc T __Z19DNBProcessSendEventiPKc
0000000100006de0 T __Z19show_usage_and_exiti
000000010000cdc0 T __Z20DNBGetDispatchQueueTiy
000000010000be28 T __Z20DNBProcessAttachWaitP10RNBContextPKcbP8timespecjPcmPFbPvES6_
000000010000db48 T __Z20DNBProcessGetCPUTypei
000000010000d91c T __Z20DNBProcessMemoryReadiymPv
000000010000ea80 T __Z21DNBGetRegisterCPUTypev
000000010000ea84 T __Z21DNBGetRegisterSetInfoPm
000000010000d274 T __Z21DNBGetSharedCacheInfoi
000000010000c69c T __Z21DNBProcessGetExitInfoi
000000010000dd88 T __Z21DNBProcessMemoryWriteiymPKv
000000010000bb70 T __Z21DNBProcessResetEventsij
000000010000a928 T __Z21DNBProcessSetExitInfoiPKc
0000000100006d78 T __Z21show_version_and_exiti
000000010000f6a8 T __Z22DNBGetOSVersionNumbersPyS_S_
000000010000b424 T __Z22DNBProcessAttachByNamePKcP8timespecbPcm
000000010000b024 T __Z22DNBProcessGetPIDByNamePKc
000000010000f2f4 T __Z22DNBProcessGetStopCounti
000000010000e5f0 T __Z22DNBThreadGetStopReasoniyP17DNBThreadStopInfo
000000010000c5ac T __Z23DNBProcessGetExitStatusiPi
000000010000e32c T __Z23DNBProcessGetNumThreadsi
000000010000b974 T __Z23DNBProcessWaitForEventsijbP8timespec
000000010000cb00 T __Z24DNBGetGenealogyImageInfoim
000000010000e150 T __Z24DNBProcessGetProfileDatai22DNBProfileDataScanType
000000010000de74 T __Z24DNBProcessMemoryAllocateimj
000000010000f3bc T __Z24DNBResolveExecutablePathPKcPcm
0000000100006638 T __Z24HandleProcessStateChangeP9RNBRemoteb
0000000100005ebc T __Z24RNBRunLoopLaunchInferiorP9RNBRemotePKcS2_S2_b
000000010000ceac T __Z25DNBGetTSDAddressForThreadiyyyy
000000010000e8a0 T __Z25DNBProcessSyncThreadStateiy
000000010002e0cc T __Z25GenerateTargetXMLRegisterRNSt3__119basic_ostringstreamIcNS_11char_traitsIcEENS_9allocatorIcEEEEjmPK18DNBRegisterSetInfoRK18register_map_entry
0000000100006458 T __Z25RNBRunLoopLaunchAttachingP9RNBRemoteiRi
000000010000f9c0 T __Z26DNBDebugserverIsTranslatedv
000000010000e418 T __Z26DNBProcessGetCurrentThreadi
000000010000e7b4 T __Z26DNBProcessGetThreadAtIndexim
000000010000df68 T __Z26DNBProcessMemoryDeallocateiy
000000010000e05c T __Z26DNBProcessMemoryRegionInfoiyP13DNBRegionInfo
000000010000e504 T __Z26DNBProcessSetCurrentThreadiy
000000010000c85c T __Z26DNBThreadGetIdentifierInfoiyP22thread_identifier_info
000000010000ee4c T __Z26DNBThreadSaveRegisterStateiy
000000010002edb8 T __Z26GenerateTargetXMLRegistersRNSt3__119basic_ostringstreamIcNS_11char_traitsIcEENS_9allocatorIcEEEE
000000010000cbd8 T __Z27DNBGetRequestedQoSForThreadiyyy
000000010000dc34 T __Z27DNBProcessMemoryReadCStringiy
000000010000da08 T __Z27DNBProcessMemoryReadIntegeriymy
000000010000dac4 T __Z27DNBProcessMemoryReadPointeriy
000000010000ec84 T __Z27DNBThreadGetRegisterContextiyPvm
000000010000ed6c T __Z27DNBThreadSetRegisterContextiyPKvm
0000000100006838 T __Z27RNBRunLoopInferiorExecutingP9RNBRemote
000000010000ca28 T __Z28DNBGetGenealogyInfoForThreadiyRb
000000010000f11c T __Z28DNBProcessGetAvailableSTDERRiPcm
000000010000f030 T __Z28DNBProcessGetAvailableSTDOUTiPcm
000000010000d090 T __Z29DNBGetAllLoadedLibrariesInfosi
000000010000ea88 T __Z29DNBThreadGetRegisterValueByIDiyjjP16DNBRegisterValue
000000010000ef48 T __Z29DNBThreadRestoreRegisterStateiyj
000000010000eba4 T __Z29DNBThreadSetRegisterValueByIDiyjjPK16DNBRegisterValue
000000010000f6ac T __Z30DNBGetMacCatalystVersionStringv
000000010000d180 T __Z31DNBGetLibrariesInfoForAddressesiRNSt3__16vectorIyNS_9allocatorIyEEEE
000000010000d830 T __Z31DNBWatchpointGetNumSupportedHWPi
000000010000dcec T __Z32DNBProcessMemoryReadCStringFixediym
0000000100005c5c T __Z32RNBRunLoopGetStartModeFromRemoteP9RNBRemote
000000010000cf98 T __Z33DNBGetLoadedDynamicLibrariesInfosiyy
000000010000f208 T __Z33DNBProcessGetAvailableProfileDataiPcm
000000010000e248 T __Z33DNBProcessSetEnableAsyncProfilingijy22DNBProfileDataScanType
000000010002bf60 T __Z33register_value_in_hex_fixed_widthRNSt3__113basic_ostreamIcNS_11char_traitsIcEEEEiyPK18register_map_entryPK16DNBRegisterValue
000000010000e98c T __Z37DNBProcessGetSharedLibraryInfoAddressi
000000010002f918 T __Z40get_boolean_value_for_key_name_from_jsonPKcS0_Rb
000000010002f7cc T __Z40get_integer_value_for_key_name_from_jsonPKcS0_
000000010002fa88 T __Z46get_array_of_ints_value_for_key_name_from_jsonPKcS0_RNSt3__16vectorIyNS1_9allocatorIyEEEE
000000010002c19c T __Z54debugserver_regnum_with_fixed_width_hex_register_valueRNSt3__113basic_ostreamIcNS_11char_traitsIcEEEEiyPK18register_map_entryPK16DNBRegisterValue
0000000100075c30 b __ZGVZL15_DNBLogVAPrintfjPKcPcE18g_LogThreadedMutex
0000000100476150 b __ZGVZN12MachVMMemory16GetMemoryProfileE22DNBProfileDataScanTypej15task_basic_infoiiR15vm_statistics64RyS4_S4_S4_E9localHost
0000000100475d38 b __ZGVZN8MachTask14GetProfileDataE22DNBProfileDataScanTypeE8pagesize
0000000100075c98 b __ZGVZN9RNBRemote17HandleAsyncPacketEPNS_10PacketEnumEE13g_packetTimer
0000000100075cb8 b __ZGVZN9RNBRemote20HandleReceivedPacketEPNS_10PacketEnumEE13g_packetTimer
0000000100041970 t __ZL11SetBKSErrorlNSt3__112basic_stringIcNS_11char_traitsIcEENS_9allocatorIcEEEER8DNBError
0000000100041828 t __ZL11SetFBSErrorlNSt3__112basic_stringIcNS_11char_traitsIcEENS_9allocatorIcEEEER8DNBError
0000000100075bc0 b __ZL11g_log_baton
0000000100041248 t __ZL12GetAppBundleNSt3__112basic_stringIcNS_11char_traitsIcEENS_9allocatorIcEEEE
0000000100075be8 b __ZL12g_message_id
0000000100475cf8 b __ZL12g_target_xml
00000001000091ec t __ZL13ConnectRemoteP9RNBRemotePKcibS2_S2_
0000000100075b98 b __ZL13g_applist_opt
0000000100075cd8 b __ZL13g_reg_entries
000000010004527c t __ZL14SplitEventDataPKcRNSt3__16vectorINS1_12basic_stringIcNS1_11char_traitsIcEENS1_9allocatorIcEEEENS6_IS8_EEEE
0000000100075b9c b __ZL14g_lockdown_opt
0000000100075bb8 b __ZL14g_log_callback
000000010006c168 d __ZL14g_long_options
000000010002b808 t __ZL14get_identifierRNSt3__112basic_stringIcNS_11char_traitsIcEENS_9allocatorIcEEEE
000000010000fa1c t __ZL14waitpid_threadPv
000000010000ae8c t __ZL15AddProcessToMapiRNSt3__110shared_ptrI11MachProcessEE
000000010002da80 t __ZL15ReadStackMemoryiyRNSt3__13mapIy11StackMemoryNS_4lessIyEENS_9allocatorINS_4pairIKyS1_EEEEEEj
0000000100075b88 b __ZL15g_launch_flavor
0000000100075ce0 b __ZL17g_num_reg_entries
0000000100075ba0 b __ZL18g_current_cpu_type
0000000100041464 t __ZL19CopyBundleIDForPathPKcR8DNBError
000000010000ad74 t __ZL20spawn_waitpid_threadi
0000000100075ba4 b __ZL21g_current_cpu_subtype
0000000100075c48 b __ZL22OS_LOG_EVENTS_KEY_NAME
0000000100075cc0 b __ZL22g_dynamic_register_map
000000010000b088 t __ZL23GetAllInfosMatchingNamePKcRNSt3__16vectorI10kinfo_procNS1_9allocatorIS3_EEEE
0000000100062142 s __ZL23g_arm_breakpoint_opcode
0000000100043c9c t __ZL24BKSAddEventDataToOptionsP19NSMutableDictionaryPKcR8DNBError
0000000100054964 t __ZL24BKSAddEventDataToOptionsP19NSMutableDictionaryPKcR8DNBError.cold.1
0000000100043f28 t __ZL24FBSAddEventDataToOptionsP19NSMutableDictionaryPKcR8DNBError
00000001000549bc t __ZL24FBSAddEventDataToOptionsP19NSMutableDictionaryPKcR8DNBError.cold.1
0000000100075c60 b __ZL24JSON_ASYNC_TYPE_KEY_NAME
0000000100062180 s __ZL25g_arm64_breakpoint_opcode
0000000100062140 s __ZL25g_thumb_breakpoint_opcode
000000010000969c t __ZL29PortWasBoundCallbackNamedPipePKvt
000000010002dc80 t __ZL29RNBRemoteShouldCancelCallbackPv
0000000100009534 t __ZL30PortWasBoundCallbackUnixSocketPKvt
00000001000544cc t __ZL30PortWasBoundCallbackUnixSocketPKvt.cold.1
00000001000544e8 t __ZL30PortWasBoundCallbackUnixSocketPKvt.cold.2
0000000100054504 t __ZL30PortWasBoundCallbackUnixSocketPKvt.cold.3
00000001000444d8 t __ZL37CallBoardSystemServiceOpenApplicationI16BKSSystemService27BKSOpenApplicationErrorCodeLS1_0EXadL_ZL11SetBKSErrorlNSt3__112basic_stringIcNS2_11char_traitsIcEENS2_9allocatorIcEEEER8DNBErrorEEEbP8NSStringP12NSDictionarySA_Pi
0000000100044c44 t __ZL37CallBoardSystemServiceOpenApplicationI16FBSSystemService27FBSOpenApplicationErrorCodeLS1_0EXadL_ZL11SetFBSErrorlNSt3__112basic_stringIcNS2_11char_traitsIcEENS2_9allocatorIcEEEER8DNBErrorEEEbP8NSStringP12NSDictionarySA_Pi
0000000100476164 b __ZL4LoHi
00000001004761a4 b __ZL4LoHi
0000000100075bb0 b __ZL7g_debug
0000000100475d28 b __ZL9g_message
0000000100075bb4 b __ZL9g_verbose
00000001000356a8 t __ZN10CFReleaserIP10__CFBundleED0Ev
0000000100035658 t __ZN10CFReleaserIP10__CFBundleED1Ev
0000000100033a84 t __ZN10CFReleaserIP14__CFDictionaryED0Ev
00000001000334a4 t __ZN10CFReleaserIP14__CFDictionaryED1Ev
0000000100048a8c t __ZN10CFReleaserIP20BKSWatchdogAssertionED0Ev
000000010004869c t __ZN10CFReleaserIP20BKSWatchdogAssertionED1Ev
0000000100033b3c t __ZN10CFReleaserIP9__CFArrayED0Ev
0000000100033a34 t __ZN10CFReleaserIP9__CFArrayED1Ev
0000000100033ae0 t __ZN10CFReleaserIPK10__CFNumberED0Ev
0000000100033454 t __ZN10CFReleaserIPK10__CFNumberED1Ev
0000000100033b98 t __ZN10CFReleaserIPK10__CFStringED0Ev
0000000100033944 t __ZN10CFReleaserIPK10__CFStringED1Ev
0000000100010054 t __ZN10CFReleaserIPK7__CFURLED0Ev
000000010000f658 t __ZN10CFReleaserIPK7__CFURLED1Ev
0000000100033c50 t __ZN10CFReleaserIPK8__CFDataED0Ev
00000001000339e4 t __ZN10CFReleaserIPK8__CFDataED1Ev
0000000100033bf4 t __ZN10CFReleaserIPK9__CFArrayED0Ev
0000000100033994 t __ZN10CFReleaserIPK9__CFArrayED1Ev
00000001000102c0 T __ZN10DNBDataRef4DumpEjjyNS_4TypeEjPKc
00000001000100b0 T __ZN10DNBDataRefC1EPKhmb
00000001000100d0 T __ZN10DNBDataRefD1Ev
0000000100049698 T __ZN10MachThread10IsSteppingEv
0000000100049564 T __ZN10MachThread10ShouldStopERb
0000000100049c38 T __ZN10MachThread11GetPThreadTEv
0000000100049230 T __ZN10MachThread11IsUserReadyEv
00000001000496d8 T __ZN10MachThread13ThreadDidStopEv
0000000100049e54 T __ZN10MachThread15GetRequestedQoSEyy
00000001000497e4 T __ZN10MachThread15NotifyExceptionERN13MachException4DataE
00000001000498e4 T __ZN10MachThread16GetRegisterValueEjjP16DNBRegisterValue
000000010004990c T __ZN10MachThread16SetRegisterValueEjjPK16DNBRegisterValue
0000000100049410 T __ZN10MachThread16ThreadWillResumeEPK21DNBThreadResumeActionb
0000000100049a9c T __ZN10MachThread17FinishTransForHWPEv
0000000100049da0 T __ZN10MachThread17GetDispatchQueueTEv
0000000100049984 T __ZN10MachThread17SaveRegisterStateEv
0000000100049934 T __ZN10MachThread18GetRegisterContextEPvm
000000010004995c T __ZN10MachThread18SetRegisterContextEPKvm
0000000100049a74 T __ZN10MachThread19RollbackTransForHWPEv
00000001000499ac T __ZN10MachThread20RestoreRegisterStateEj
0000000100049ce4 T __ZN10MachThread22GetTSDAddressForThreadEyyy
00000001000499d4 T __ZN10MachThread24EnableHardwareBreakpointEPK13DNBBreakpointb
0000000100049a20 T __ZN10MachThread24EnableHardwareWatchpointEPK13DNBBreakpointb
0000000100049ac4 T __ZN10MachThread25DisableHardwareBreakpointEPK13DNBBreakpointb
0000000100049b04 T __ZN10MachThread25DisableHardwareWatchpointEPK13DNBBreakpointb
0000000100048ddc T __ZN10MachThread27SetSuspendCountBeforeResumeEb
0000000100048f8c T __ZN10MachThread28RestoreSuspendCountAfterStopEv
0000000100049be8 T __ZN10MachThread38GetGloballyUniqueThreadIDForMachPortIDEj
00000001000492f0 T __ZN10MachThread4DumpEj
0000000100049b6c T __ZN10MachThread7GetNameEv
0000000100048d24 T __ZN10MachThread7SuspendEv
000000010004965c T __ZN10MachThread8GetStateEv
0000000100048c58 T __ZN10MachThreadC1EP11MachProcessbyj
0000000100048aec T __ZN10MachThreadC2EP11MachProcessbyj
0000000100048d20 T __ZN10MachThreadD1Ev
0000000100048c5c T __ZN10MachThreadD2Ev
0000000100009108 t __ZN10RNBContext12PushArgumentEPKc
0000000100013610 T __ZN10RNBContext12SetProcessIDEi
0000000100014030 T __ZN10RNBContext14EventsAsStringEjRNSt3__112basic_stringIcNS0_11char_traitsIcEENS0_9allocatorIcEEEE
0000000100013a58 T __ZN10RNBContext15ArgumentAtIndexEm
0000000100009024 t __ZN10RNBContext15PushEnvironmentEPKc
0000000100013698 T __ZN10RNBContext18EnvironmentAtIndexEm
0000000100013a9c T __ZN10RNBContext19SetWorkingDirectoryEPKc
000000010001413c T __ZN10RNBContext20LaunchStatusAsStringERNSt3__112basic_stringIcNS0_11char_traitsIcEENS0_9allocatorIcEEEE
00000001000136dc T __ZN10RNBContext23PushEnvironmentIfNeededEPKc
0000000100013b1c T __ZN10RNBContext23StopProcessStatusThreadEv
0000000100013c28 T __ZN10RNBContext24StartProcessStatusThreadEv
0000000100013d38 T __ZN10RNBContext27ThreadFunctionProcessStatusEPv
0000000100013670 T __ZN10RNBContextD0Ev
000000010001366c T __ZN10RNBContextD1Ev
0000000100013464 T __ZN10RNBContextD2Ev
000000010003cf44 T __ZN11MachProcess10GetCPUTypeEv
000000010003a1e8 T __ZN11MachProcess10ReadMemoryEymPv
0000000100039df0 T __ZN11MachProcess11GetPThreadTEy
000000010003d1f0 T __ZN11MachProcess11STDIOThreadEPv
000000010004009c T __ZN11MachProcess11SetExitInfoEPKc
000000010003ed1c T __ZN11MachProcess11WriteMemoryEymPKv
0000000100040164 T __ZN11MachProcess12AppendSTDOUTEPcm
000000010003d970 T __ZN11MachProcess13PrivateResumeEv
000000010003d6d0 T __ZN11MachProcess13ProfileThreadEPv
0000000100039cd8 T __ZN11MachProcess13ThreadGetNameEy
000000010004068c T __ZN11MachProcess14AttachForDebugEibPcm
0000000100041e20 T __ZN11MachProcess14LaunchForDebugEPKcPS1_S2_S1_S1_S1_S1_b19nub_launch_flavor_tiS1_bR8DNBError
0000000100039ce0 T __ZN11MachProcess14ThreadGetStateEy
0000000100041ab8 T __ZN11MachProcess15CheckForProcessEPKv19nub_launch_flavor_t
0000000100039de8 T __ZN11MachProcess15GetRequestedQoSEyyy
0000000100039cf8 T __ZN11MachProcess15SyncThreadStateEy
00000001000546a4 t __ZN11MachProcess15SyncThreadStateEy.cold.1
000000010003ef00 T __ZN11MachProcess16CreateBreakpointEymb
000000010003f1f4 T __ZN11MachProcess16CreateWatchpointEymjb
000000010003f004 T __ZN11MachProcess16EnableBreakpointEy
000000010003f304 T __ZN11MachProcess16EnableWatchpointEy
000000010003ceec T __ZN11MachProcess16GetCurrentThreadEv
0000000100040bcc T __ZN11MachProcess16PrepareForAttachEPKc19nub_launch_flavor_tbR8DNBError
000000010003cef4 T __ZN11MachProcess16SetCurrentThreadEy
000000010003f3b8 T __ZN11MachProcess17DisableBreakpointEyb
000000010003f7cc T __ZN11MachProcess17DisableWatchpointEyb
0000000100039e08 T __ZN11MachProcess17GetDeploymentInfoERK12load_commandyb
0000000100039df8 T __ZN11MachProcess17GetDispatchQueueTEy
0000000100041b30 T __ZN11MachProcess18CleanupAfterAttachEPKv19nub_launch_flavor_tbR8DNBError
0000000100040360 T __ZN11MachProcess18GetAvailableSTDERREPcm
0000000100040224 T __ZN11MachProcess18GetAvailableSTDOUTEPcm
000000010003cb44 T __ZN11MachProcess18GetSharedCacheInfoEi
00000001000404e4 T __ZN11MachProcess19GetAsyncProfileDataEPcm
0000000100040b0c T __ZN11MachProcess19GetOSVersionNumbersEPyS0_S0_
000000010003eb34 T __ZN11MachProcess20ReplyToAllExceptionsEv
0000000100041ce4 T __ZN11MachProcess21BKSCleanupAfterAttachEPKvR8DNBError
000000010003e3d8 T __ZN11MachProcess21BoardServiceSendEventEPKcR8DNBError
000000010003e814 T __ZN11MachProcess21DisableAllBreakpointsEb
000000010003e8ac T __ZN11MachProcess21DisableAllWatchpointsEb
0000000100041ba8 T __ZN11MachProcess21FBSCleanupAfterAttachEPKvR8DNBError
0000000100040b04 T __ZN11MachProcess21GetGenealogyImageInfoEm
0000000100043c00 T __ZN11MachProcess21ProcessUsingBackBoardEv
0000000100039e00 T __ZN11MachProcess22GetTSDAddressForThreadEyyyy
000000010003cefc T __ZN11MachProcess22GetThreadStoppedReasonEyP17DNBThreadStopInfo
0000000100040368 T __ZN11MachProcess22SignalAsyncProfileDataEPKc
000000010003d5e0 T __ZN11MachProcess23SetEnableAsyncProfilingEby22DNBProfileDataScanType
000000010003f924 T __ZN11MachProcess24ExceptionMessageReceivedERKN13MachException7MessageE
0000000100040ae4 T __ZN11MachProcess25GetGenealogyInfoForThreadEyRb
00000001000426f0 T __ZN11MachProcess26BoardServiceLaunchForDebugEPKcPS1_S2_bbS1_bR8DNBError
000000010003c4a8 T __ZN11MachProcess26GetAllLoadedLibrariesInfosEi
00000001000548cc t __ZN11MachProcess26GetAllLoadedLibrariesInfosEi.cold.1
00000001000425f4 T __ZN11MachProcess27ForkChildForPTraceDebuggingEPKcPS1_S2_PS_R8DNBError
000000010003a240 T __ZN11MachProcess27GetMacCatalystVersionStringEv
000000010003c738 T __ZN11MachProcess28GetLibrariesInfoForAddressesEiRNSt3__16vectorIyNS0_9allocatorIyEEEE
0000000100054918 t __ZN11MachProcess28GetLibrariesInfoForAddressesEiRNSt3__16vectorIyNS0_9allocatorIyEEEE.cold.1
000000010003a354 T __ZN11MachProcess29GetMachOInformationFromMemoryEjyiRNS_18mach_o_informationE
000000010003fa9c T __ZN11MachProcess30ExceptionMessageBundleCompleteEv
000000010003aa70 T __ZN11MachProcess30FormatDynamicLibrariesIntoJSONERKNSt3__16vectorINS_24binary_image_informationENS0_9allocatorIS2_EEEE
00000001000546d8 t __ZN11MachProcess30FormatDynamicLibrariesIntoJSONERKNSt3__16vectorINS_24binary_image_informationENS0_9allocatorIS2_EEEE.cold.1
0000000100054764 t __ZN11MachProcess30FormatDynamicLibrariesIntoJSONERKNSt3__16vectorINS_24binary_image_informationENS0_9allocatorIS2_EEEE.cold.2
0000000100054798 t __ZN11MachProcess30FormatDynamicLibrariesIntoJSONERKNSt3__16vectorINS_24binary_image_informationENS0_9allocatorIS2_EEEE.cold.3
00000001000547d8 t __ZN11MachProcess30FormatDynamicLibrariesIntoJSONERKNSt3__16vectorINS_24binary_image_informationENS0_9allocatorIS2_EEEE.cold.4
000000010005480c t __ZN11MachProcess30FormatDynamicLibrariesIntoJSONERKNSt3__16vectorINS_24binary_image_informationENS0_9allocatorIS2_EEEE.cold.5
000000010005484c t __ZN11MachProcess30FormatDynamicLibrariesIntoJSONERKNSt3__16vectorINS_24binary_image_informationENS0_9allocatorIS2_EEEE.cold.6
000000010003bcf0 T __ZN11MachProcess30GetLoadedDynamicLibrariesInfosEiyy
0000000100054880 t __ZN11MachProcess30GetLoadedDynamicLibrariesInfosEiyy.cold.1
0000000100042a38 T __ZN11MachProcess33PosixSpawnChildForPTraceDebuggingEPKciiPS1_S2_S1_S1_S1_S1_bPS_iR8DNBError
00000001000432ac T __ZN11MachProcess39BoardServiceForkChildForPTraceDebuggingEPKcPS1_S2_bbS1_R8DNBError
000000010003da74 T __ZN11MachProcess4KillEPK8timespec
0000000100039af8 T __ZN11MachProcess5ClearEb
000000010003e944 T __ZN11MachProcess6DetachEv
000000010003d878 T __ZN11MachProcess6ResumeERK22DNBThreadResumeActions
000000010003e1ac T __ZN11MachProcess6SignalEiPK8timespec
0000000100039c98 T __ZN11MachProcess8GetStateEv
000000010003d044 T __ZN11MachProcess8SetStateE11nub_state_t
000000010003dd28 T __ZN11MachProcess9DoSIGSTOPEbbPj
000000010003e098 T __ZN11MachProcess9InterruptEv
000000010003e344 T __ZN11MachProcess9SendEventEPKcR8DNBError
0000000100039734 T __ZN11MachProcessC1Ev
0000000100038f58 T __ZN11MachProcessC2Ev
0000000100054638 t __ZN11MachProcessC2Ev.cold.1
0000000100039c94 T __ZN11MachProcessD1Ev
0000000100039738 T __ZN11MachProcessD2Ev
000000010004d30c T __ZN12MachVMMemory11WriteRegionEjyPKvm
000000010004ce8c T __ZN12MachVMMemory16GetMemoryProfileE22DNBProfileDataScanTypej15task_basic_infoiiR15vm_statistics64RyS4_S4_S4_
000000010004cd5c T __ZN12MachVMMemory19GetMemoryRegionInfoEjyP13DNBRegionInfo
000000010004d01c T __ZN12MachVMMemory4ReadEjyPvm
000000010004d1d4 T __ZN12MachVMMemory5WriteEjyPKvm
000000010004ca2c T __ZN12MachVMMemory8PageSizeEj
000000010004c9e0 T __ZN12MachVMMemoryC1Ev
000000010004c9f8 T __ZN12MachVMMemoryD1Ev
000000010004d6a0 T __ZN12MachVMRegion14SetProtectionsEyyi
000000010004d598 T __ZN12MachVMRegion18RestoreProtectionsEv
000000010004d898 T __ZN12MachVMRegion19GetRegionForAddressEy
000000010004d4c0 T __ZN12MachVMRegionC1Ej
000000010004d500 T __ZN12MachVMRegionD1Ev
000000010001325c T __ZN12PThreadEvent11ResetEventsEj
00000001000131fc T __ZN12PThreadEvent9SetEventsEj
0000000100013118 T __ZN12PThreadEventC1Ejj
0000000100013174 T __ZN12PThreadEventD1Ev
0000000100010f9c t __ZN12PThreadMutexD1Ev
0000000100012920 T __ZN12lldb_private13SocketAddress12GetMaxLengthEv
0000000100012a90 T __ZN12lldb_private13SocketAddress14GetAddressInfoEPKcS2_iiii
0000000100012cc0 T __ZN12lldb_private13SocketAddress15SetToAnyAddressEht
0000000100012a68 T __ZN12lldb_private13SocketAddress7SetPortEt
00000001000128fc T __ZN12lldb_private13SocketAddressC1Ev
0000000100012914 T __ZN12lldb_private13SocketAddressD1Ev
000000010002fffc t __ZN13JSONGenerator10Dictionary13AddStringItemENSt3__112basic_stringIcNS1_11char_traitsIcEENS1_9allocatorIcEEEES7_
00000001000301ac t __ZN13JSONGenerator10Dictionary14AddBooleanItemENSt3__112basic_stringIcNS1_11char_traitsIcEENS1_9allocatorIcEEEEb
000000010002fd84 t __ZN13JSONGenerator10Dictionary14AddIntegerItemENSt3__112basic_stringIcNS1_11char_traitsIcEENS1_9allocatorIcEEEEy
000000010003031c t __ZN13JSONGenerator10Dictionary24AddBytesAsHexASCIIStringENSt3__112basic_stringIcNS1_11char_traitsIcEENS1_9allocatorIcEEEEPKhm
000000010002fef4 t __ZN13JSONGenerator10Dictionary7AddItemENSt3__112basic_stringIcNS1_11char_traitsIcEENS1_9allocatorIcEEEENS1_10shared_ptrINS_6ObjectEEE
0000000100030c28 t __ZN13JSONGenerator10DictionaryD0Ev
0000000100030c24 t __ZN13JSONGenerator10DictionaryD1Ev
0000000100030e24 t __ZN13JSONGenerator10DictionaryD2Ev
0000000100031058 t __ZN13JSONGenerator5ArrayD0Ev
0000000100030f78 t __ZN13JSONGenerator5ArrayD1Ev
0000000100030c58 t __ZN13JSONGenerator6Object5ClearEv
0000000100031684 t __ZN13JSONGenerator6StringD0Ev
000000010003161c t __ZN13JSONGenerator6StringD1Ev
0000000100031874 t __ZN13JSONGenerator7BooleanD0Ev
0000000100031844 t __ZN13JSONGenerator7BooleanD1Ev
00000001000313e4 t __ZN13JSONGenerator7IntegerD0Ev
00000001000313b4 t __ZN13JSONGenerator7IntegerD1Ev
0000000100038120 t __ZN13MachException4Data19AppendExceptionDataEPxj
0000000100038958 T __ZN13MachException7Message19CatchExceptionRaiseEj
00000001000389c0 T __ZN13MachException7Message5ReplyEP11MachProcessi
0000000100038810 T __ZN13MachException7Message7ReceiveEjijj
0000000100038c44 T __ZN13MachException8PortInfo4SaveEj
0000000100038e18 T __ZN13MachException8PortInfo7RestoreEj
000000010004e254 T __ZN14DNBArchMachARM10InitializeEv
0000000100067420 S __ZN14DNBArchMachARM10g_reg_setsE
000000010004e400 T __ZN14DNBArchMachARM11GetGPRStateEb
000000010004e584 T __ZN14DNBArchMachARM11GetVFPStateEb
000000010004e6a8 T __ZN14DNBArchMachARM11SetVFPStateEv
000000010004eb04 T __ZN14DNBArchMachARM13ThreadDidStopEv
000000010004ec00 T __ZN14DNBArchMachARM15NotifyExceptionERN13MachException4DataE
000000010004ef04 T __ZN14DNBArchMachARM15StepNotCompleteEv
0000000100067348 S __ZN14DNBArchMachARM15g_exc_registersE
0000000100065770 S __ZN14DNBArchMachARM15g_gpr_registersE
0000000100065c38 S __ZN14DNBArchMachARM15g_vfp_registersE
0000000100050008 T __ZN14DNBArchMachARM16GetRegisterStateEib
000000010004fcd0 T __ZN14DNBArchMachARM16GetRegisterValueEjjP16DNBRegisterValue
00000001000501e0 T __ZN14DNBArchMachARM16SetRegisterStateEi
000000010004fe5c T __ZN14DNBArchMachARM16SetRegisterValueEjjPK16DNBRegisterValue
000000010004e7b4 T __ZN14DNBArchMachARM16ThreadWillResumeEv
000000010005069c T __ZN14DNBArchMachARM17SaveRegisterStateEv
000000010005042c T __ZN14DNBArchMachARM18GetRegisterContextEPvm
000000010004e390 T __ZN14DNBArchMachARM18GetRegisterSetInfoEPm
0000000100050550 T __ZN14DNBArchMachARM18SetRegisterContextEPKvm
000000010005088c T __ZN14DNBArchMachARM20RestoreRegisterStateEj
000000010004f0b4 T __ZN14DNBArchMachARM24EnableHardwareBreakpointEymb
000000010004e93c T __ZN14DNBArchMachARM24EnableHardwareSingleStepEb
000000010004f390 T __ZN14DNBArchMachARM24EnableHardwareWatchpointEymbbb
000000010004fb54 T __ZN14DNBArchMachARM24GetHardwareWatchpointHitERy
000000010004e3a4 T __ZN14DNBArchMachARM24SoftwareBreakpointOpcodeEm
000000010004f278 T __ZN14DNBArchMachARM25DisableHardwareBreakpointEjb
000000010004f8f0 T __ZN14DNBArchMachARM25DisableHardwareWatchpointEjb
000000010004f6f8 T __ZN14DNBArchMachARM26ReenableHardwareWatchpointEj
000000010004ef94 T __ZN14DNBArchMachARM31NumSupportedHardwareBreakpointsEv
000000010004f024 T __ZN14DNBArchMachARM31NumSupportedHardwareWatchpointsEv
000000010004f9e8 T __ZN14DNBArchMachARM32DisableHardwareWatchpoint_helperEjb
000000010004f7d8 T __ZN14DNBArchMachARM33ReenableHardwareWatchpoint_helperEj
000000010004e3c8 T __ZN14DNBArchMachARM5GetPCEy
000000010004e54c T __ZN14DNBArchMachARM5GetSPEy
000000010004e4ec T __ZN14DNBArchMachARM5SetPCEy
000000010004e288 T __ZN14DNBArchMachARM6CreateEP10MachThread
0000000100050a9c t __ZN14DNBArchMachARMD0Ev
0000000100050a40 t __ZN14DNBArchMachARMD1Ev
000000010004c260 T __ZN14MachThreadList10ShouldStopERb
000000010004a754 T __ZN14MachThreadList11GetPThreadTEy
000000010004b60c T __ZN14MachThreadList13CurrentThreadERNSt3__110shared_ptrI10MachThreadEE
000000010004c1d4 T __ZN14MachThreadList14ProcessDidStopEP11MachProcess
000000010004b574 T __ZN14MachThreadList15CurrentThreadIDEv
000000010004a5dc T __ZN14MachThreadList15GetRequestedQoSEyyy
000000010004b76c T __ZN14MachThreadList15NotifyExceptionERN13MachException4DataE
000000010004aa44 T __ZN14MachThreadList16SetCurrentThreadEy
000000010004b938 T __ZN14MachThreadList16UpdateThreadListEP11MachProcessbPNSt3__16vectorINS2_10shared_ptrI10MachThreadEENS2_9allocatorIS6_EEEE
000000010004a844 T __ZN14MachThreadList17GetDispatchQueueTEy
000000010004ac8c T __ZN14MachThreadList17GetIdentifierInfoEyP22thread_identifier_info
000000010004bef8 T __ZN14MachThreadList17ProcessWillResumeEP11MachProcessRK22DNBThreadResumeActions
000000010004b2e0 T __ZN14MachThreadList17SaveRegisterStateEy
000000010004b0d0 T __ZN14MachThreadList18GetRegisterContextEyPvm
000000010004b1d8 T __ZN14MachThreadList18SetRegisterContextEyPKvm
000000010004b3d0 T __ZN14MachThreadList20RestoreRegisterStateEyj
000000010004a934 T __ZN14MachThreadList22GetTSDAddressForThreadEyyyy
000000010004c314 T __ZN14MachThreadList23NotifyBreakpointChangedEPK13DNBBreakpoint
000000010004b87c T __ZN14MachThreadList5ClearEv
000000010004a4ec T __ZN14MachThreadList7GetNameEy
000000010004a354 T __ZN14MachThreadList8GetStateEy
000000010004a190 T __ZN14MachThreadListC1Ev
000000010004a350 T __ZN14MachThreadListD1Ev
000000010004a220 T __ZN14MachThreadListD2Ev
0000000100012eb4 T __ZN14PseudoTerminal25OpenFirstAvailablePrimaryEi
0000000100012f50 T __ZN14PseudoTerminal4ForkERNS_6StatusE
0000000100012e54 T __ZN14PseudoTerminalC1Ev
0000000100012e60 T __ZN14PseudoTerminalD1Ev
0000000100009818 T __ZN15DNBArchProtocol10GetCPUTypeEv
0000000100009824 T __ZN15DNBArchProtocol13GetCPUSubTypeEv
0000000100009830 T __ZN15DNBArchProtocol15SetArchitectureEjj
0000000100054134 t __ZN15DNBArchProtocol15StepNotCompleteEv
0000000100050b08 t __ZN15DNBArchProtocol16StartTransForHWPEv
0000000100050b18 t __ZN15DNBArchProtocol17FinishTransForHWPEv
0000000100009a0c T __ZN15DNBArchProtocol18GetRegisterCPUTypeEv
0000000100009a68 T __ZN15DNBArchProtocol18GetRegisterSetInfoEPm
00000001000098f8 T __ZN15DNBArchProtocol18RegisterArchPluginERK20DNBArchPluginInfoTag
0000000100009b24 T __ZN15DNBArchProtocol19GetBreakpointOpcodeEm
0000000100050b10 t __ZN15DNBArchProtocol19RollbackTransForHWPEv
0000000100009ac8 T __ZN15DNBArchProtocol6CreateEP10MachThread
00000001000510bc T __ZN16DNBArchMachARM6410InitializeEv
000000010006bad8 S __ZN16DNBArchMachARM6410g_reg_setsE
000000010005121c T __ZN16DNBArchMachARM6411GetGPRStateEb
000000010005159c T __ZN16DNBArchMachARM6411GetVFPStateEb
0000000100051e64 T __ZN16DNBArchMachARM6413ThreadDidStopEv
0000000100051a8c T __ZN16DNBArchMachARM6415NotifyExceptionERN13MachException4DataE
000000010006a410 S __ZN16DNBArchMachARM6415g_amx_registersE
000000010006a338 S __ZN16DNBArchMachARM6415g_exc_registersE
00000001000675f0 S __ZN16DNBArchMachARM6415g_gpr_registersE
00000001000687a8 S __ZN16DNBArchMachARM6415g_vfp_registersE
00000001000533f4 T __ZN16DNBArchMachARM6416GetRegisterStateEib
0000000100052d04 T __ZN16DNBArchMachARM6416GetRegisterValueEjjP16DNBRegisterValue
00000001000535e0 T __ZN16DNBArchMachARM6416SetRegisterStateEi
0000000100053030 T __ZN16DNBArchMachARM6416SetRegisterValueEjjPK16DNBRegisterValue
000000010005178c T __ZN16DNBArchMachARM6416ThreadWillResumeEv
0000000100053c58 T __ZN16DNBArchMachARM6417SaveRegisterStateEv
0000000100053954 T __ZN16DNBArchMachARM6418GetRegisterContextEPvm
0000000100051154 T __ZN16DNBArchMachARM6418GetRegisterSetInfoEPm
0000000100053a90 T __ZN16DNBArchMachARM6418SetRegisterContextEPKvm
000000010006bb38 S __ZN16DNBArchMachARM6419g_reg_sets_with_amxE
0000000100053e1c T __ZN16DNBArchMachARM6420RestoreRegisterStateEj
0000000100052090 T __ZN16DNBArchMachARM6424EnableHardwareBreakpointEymb
00000001000518d0 T __ZN16DNBArchMachARM6424EnableHardwareSingleStepEb
000000010005227c T __ZN16DNBArchMachARM6424EnableHardwareWatchpointEymbbb
0000000100052b20 T __ZN16DNBArchMachARM6424GetHardwareWatchpointHitERy
00000001000511b8 T __ZN16DNBArchMachARM6424SoftwareBreakpointOpcodeEm
00000001000529b8 T __ZN16DNBArchMachARM6425DisableHardwareBreakpointEjb
00000001000527a4 T __ZN16DNBArchMachARM6425DisableHardwareWatchpointEjb
00000001000525c0 T __ZN16DNBArchMachARM6426ReenableHardwareWatchpointEj
0000000100052000 T __ZN16DNBArchMachARM6431NumSupportedHardwareBreakpointsEv
0000000100051f70 T __ZN16DNBArchMachARM6431NumSupportedHardwareWatchpointsEv
000000010005284c T __ZN16DNBArchMachARM6432DisableHardwareWatchpoint_helperEjb
0000000100052694 T __ZN16DNBArchMachARM6433ReenableHardwareWatchpoint_helperEj
00000001000511c4 T __ZN16DNBArchMachARM645GetPCEy
0000000100051544 T __ZN16DNBArchMachARM645GetSPEy
000000010005143c T __ZN16DNBArchMachARM645SetPCEy
0000000100051108 T __ZN16DNBArchMachARM646CreateEP10MachThread
000000010005413c t __ZN16DNBArchMachARM64C2EP10MachThread
00000001000540c0 t __ZN16DNBArchMachARM64D0Ev
0000000100054050 t __ZN16DNBArchMachARM64D1Ev
000000010000a1bc T __ZN17DNBBreakpointList10DisableAllEv
0000000100009e7c T __ZN17DNBBreakpointList13FindByAddressEy
000000010000a4b4 T __ZN17DNBBreakpointList14RemoveDisabledEv
000000010000a374 T __ZN17DNBBreakpointList21DisableAllBreakpointsEP11MachProcess
000000010000a414 T __ZN17DNBBreakpointList21DisableAllWatchpointsEP11MachProcess
0000000100009ec4 T __ZN17DNBBreakpointList31FindBreakpointsThatOverlapRangeEyyRNSt3__16vectorIP13DNBBreakpointNS0_9allocatorIS3_EEEE
0000000100009c48 T __ZN17DNBBreakpointList3AddEymb
0000000100009da0 T __ZN17DNBBreakpointList6RemoveEy
0000000100009c08 T __ZN17DNBBreakpointListC1Ev
0000000100009c1c T __ZN17DNBBreakpointListD1Ev
0000000100011e64 T __ZN18StdStringExtractor11DecodeHexU8Ev
0000000100012688 T __ZN18StdStringExtractor11GetHexBytesEPvmh
0000000100012080 T __ZN18StdStringExtractor12GetHexMaxU32Ebj
0000000100012384 T __ZN18StdStringExtractor12GetHexMaxU64Eby
000000010001275c T __ZN18StdStringExtractor16GetHexByteStringERNSt3__112basic_stringIcNS0_11char_traitsIcEENS0_9allocatorIcEEEE
0000000100012824 T __ZN18StdStringExtractor17GetNameColonValueERNSt3__112basic_stringIcNS0_11char_traitsIcEENS0_9allocatorIcEEEES7_
0000000100011fe4 T __ZN18StdStringExtractor6GetU32Eji
0000000100011e18 T __ZN18StdStringExtractor7GetCharEc
0000000100011d14 T __ZN18StdStringExtractorC1EPKc
0000000100011db8 T __ZN18StdStringExtractorD0Ev
0000000100011d68 T __ZN18StdStringExtractorD1Ev
00000001000116bc T __ZN22DNBThreadResumeActions12AppendActionEy11nub_state_tiy
0000000100011338 T __ZN22DNBThreadResumeActions30SetDefaultThreadActionIfNeededE11nub_state_ti
0000000100011534 T __ZN22DNBThreadResumeActions6AppendERK21DNBThreadResumeAction
0000000100011500 T __ZN22DNBThreadResumeActionsC1E11nub_state_ti
00000001000112c4 T __ZN22DNBThreadResumeActionsC1EPK21DNBThreadResumeActionm
0000000100010fdc T __ZN22DNBThreadResumeActionsC1Ev
000000010003967c t __ZN22DNBThreadResumeActionsD1Ev
0000000100035390 T __ZN8CFBundle7SetPathEPKc
0000000100035480 T __ZN8CFBundleC1EPKc
0000000100035590 T __ZN8CFBundleD0Ev
00000001000354f4 T __ZN8CFBundleD1Ev
0000000100035848 T __ZN8CFString27SetFileSystemRepresentationEPKc
0000000100035934 T __ZN8CFString4UTF8EPK10__CFStringRNSt3__112basic_stringIcNS3_11char_traitsIcEENS3_9allocatorIcEEEE
00000001000358ac T __ZN8CFString8GlobPathEPKcRNSt3__112basic_stringIcNS2_11char_traitsIcEENS2_9allocatorIcEEEE
0000000100035704 T __ZN8CFStringC1EPK10__CFString
0000000100035724 T __ZN8CFStringC1EPKcj
00000001000357ec T __ZN8CFStringD0Ev
000000010003579c T __ZN8CFStringD1Ev
0000000100030b20 t __ZN8DNBTimerC2Eb
0000000100029370 t __ZN8DNBTimerD1Ev
00000001000466dc T __ZN8MachTask10ReadMemoryEymPv
00000001000467cc T __ZN8MachTask11WriteMemoryEymPKv
00000001000487b8 T __ZN8MachTask14AllocateMemoryEmj
0000000100046944 T __ZN8MachTask14GetProfileDataE22DNBProfileDataScanType
0000000100048088 T __ZN8MachTask15ExceptionThreadEPv
0000000100048910 T __ZN8MachTask16DeallocateMemoryEy
00000001000468bc T __ZN8MachTask19GetMemoryRegionInfoEyP13DNBRegionInfo
0000000100047e0c T __ZN8MachTask20StartExceptionThreadEbR8DNBError
0000000100047b0c T __ZN8MachTask20TaskPortForProcessIDER8DNBErrorb
0000000100047b58 T __ZN8MachTask20TaskPortForProcessIDEiR8DNBErrorjj
00000001000484cc T __ZN8MachTask24ShutDownExcecptionThreadEv
00000001000486f0 T __ZN8MachTask27GetDYLDAllImageInfosAddressER8DNBError
000000010004625c T __ZN8MachTask5ClearEv
00000001000463fc T __ZN8MachTask6ResumeEv
0000000100047dd8 T __ZN8MachTask7IsValidEj
0000000100046348 T __ZN8MachTask7SuspendEv
0000000100046570 T __ZN8MachTask9BasicInfoEjP15task_basic_info
00000001000461d8 T __ZN8MachTaskC1EP11MachProcess
00000001000462d4 T __ZN8MachTaskD0Ev
0000000100046270 T __ZN8MachTaskD1Ev
000000010004de30 T __ZN8OsLogger14GetLogFunctionEv
0000000100035bc4 T __ZN9Genealogy13GetActivitiesEiRK14MachThreadListj
0000000100037920 t __ZN9Genealogy14ThreadActivityD2Ev
0000000100035b10 T __ZN9Genealogy25GetGenealogyInfoForThreadEiyRK14MachThreadListjRb
000000010003731c T __ZN9Genealogy32GetProcessExecutableInfosAtIndexEm
00000001000362d0 T __ZN9Genealogy5ClearEv
0000000100035b0c T __ZN9GenealogyC1Ev
00000001000359f8 T __ZN9GenealogyC2Ev
0000000100039540 t __ZN9GenealogyD1Ev
0000000100027b3c T __ZN9RNBRemote10FlushSTDIOEv
0000000100029e80 T __ZN9RNBRemote10InitializeEv
0000000100028048 T __ZN9RNBRemote10SendPacketERKNSt3__112basic_stringIcNS0_11char_traitsIcEENS0_9allocatorIcEEEE
0000000100028450 T __ZN9RNBRemote14CompressStringERKNSt3__112basic_stringIcNS0_11char_traitsIcEENS0_9allocatorIcEEEE
000000010001b820 T __ZN9RNBRemote14HandlePacket_AEPKc
000000010001baf0 T __ZN9RNBRemote14HandlePacket_CEPKc
000000010001bcf8 T __ZN9RNBRemote14HandlePacket_DEPKc
000000010001a6cc T __ZN9RNBRemote14HandlePacket_GEPKc
000000010001b0f0 T __ZN9RNBRemote14HandlePacket_HEPKc
000000010001a000 T __ZN9RNBRemote14HandlePacket_MEPKc
000000010001a398 T __ZN9RNBRemote14HandlePacket_PEPKc
000000010001aed8 T __ZN9RNBRemote14HandlePacket_SEPKc
000000010001be3c T __ZN9RNBRemote14HandlePacket_TEPKc
000000010001dcf8 T __ZN9RNBRemote14HandlePacket_XEPKc
000000010001ad4c T __ZN9RNBRemote14HandlePacket_cEPKc
0000000100019bc4 T __ZN9RNBRemote14HandlePacket_gEPKc
000000010001bdbc T __ZN9RNBRemote14HandlePacket_kEPKc
000000010001914c T __ZN9RNBRemote14HandlePacket_mEPKc
000000010001966c T __ZN9RNBRemote14HandlePacket_pEPKc
000000010001abf0 T __ZN9RNBRemote14HandlePacket_sEPKc
000000010001c0ec T __ZN9RNBRemote14HandlePacket_vEPKc
000000010001d6e4 T __ZN9RNBRemote14HandlePacket_xEPKc
000000010001a934 T __ZN9RNBRemote14HandlePacket_zEPKc
000000010001e634 T __ZN9RNBRemote15HandlePacket_qCEPKc
0000000100029598 T __ZN9RNBRemote16CommDataReceivedERKNSt3__112basic_stringIcNS0_11char_traitsIcEENS0_9allocatorIcEEEE
0000000100028908 T __ZN9RNBRemote16GetPacketPayloadERNSt3__112basic_stringIcNS0_11char_traitsIcEENS0_9allocatorIcEEEE
00000001000143d4 T __ZN9RNBRemote17CreatePacketTableEv
0000000100029088 T __ZN9RNBRemote17HandleAsyncPacketEPNS_10PacketEnumE
000000010002c428 T __ZN9RNBRemote18GetJSONThreadsInfoEb
000000010001e8d0 T __ZN9RNBRemote18HandlePacket_qEchoEPKc
000000010001e084 T __ZN9RNBRemote18HandlePacket_qRcmdEPKc
0000000100027020 T __ZN9RNBRemote18HandlePacket_qXferEPKc
0000000100029e84 T __ZN9RNBRemote19InitializeRegistersEb
000000010001e994 T __ZN9RNBRemote20HandlePacket_qGetPidEPKc
00000001000216ec T __ZN9RNBRemote20HandlePacket_qSymbolEPKc
00000001000293c8 T __ZN9RNBRemote20HandleReceivedPacketEPNS_10PacketEnumE
0000000100027c38 T __ZN9RNBRemote20SendAsyncProfileDataEv
0000000100028f78 T __ZN9RNBRemote22HandlePacket_ILLFORMEDEPKciS1_S1_
0000000100024bb8 T __ZN9RNBRemote22HandlePacket_QSetSTDIOEPKc
0000000100020488 T __ZN9RNBRemote22HandlePacket_qHostInfoEPKc
0000000100026ea0 T __ZN9RNBRemote23HandlePacket_qSpeedTestEPKc
000000010001bf88 T __ZN9RNBRemote23HandlePacket_qSupportedEPKc
0000000100024a98 T __ZN9RNBRemote24HandlePacket_QLaunchArchEPKc
0000000100024588 T __ZN9RNBRemote24HandlePacket_QSetLoggingEPKc
000000010001b218 T __ZN9RNBRemote24HandlePacket_last_signalEPKc
000000010001ebf4 T __ZN9RNBRemote24HandlePacket_qThreadInfoEPKc
000000010002a604 T __ZN9RNBRemote24NotifyThatProcessStoppedEv
0000000100027d14 T __ZN9RNBRemote24SendHexEncodedBytePacketEPKcPKvmS1_
0000000100018fe8 T __ZN9RNBRemote24StopReadRemoteDataThreadEv
00000001000247a4 T __ZN9RNBRemote25HandlePacket_QEnvironmentEPKc
000000010002386c T __ZN9RNBRemote25HandlePacket_jThreadsInfoEPKc
0000000100020e58 T __ZN9RNBRemote25HandlePacket_qProcessInfoEPKc
000000010001b7d4 T __ZN9RNBRemote25HandlePacket_stop_processEPKc
0000000100029968 T __ZN9RNBRemote25StartReadRemoteDataThreadEv
0000000100028e78 T __ZN9RNBRemote26HandlePacket_UNIMPLEMENTEDEPKc
000000010001f51c T __ZN9RNBRemote26HandlePacket_qRegisterInfoEPKc
0000000100025050 T __ZN9RNBRemote27HandlePacket_AllocateMemoryEPKc
0000000100025f5c T __ZN9RNBRemote27HandlePacket_GetProfileDataEPKc
0000000100024d34 T __ZN9RNBRemote27HandlePacket_QSetWorkingDirEPKc
000000010001f11c T __ZN9RNBRemote27HandlePacket_qLaunchSuccessEPKc
0000000100020078 T __ZN9RNBRemote27HandlePacket_qShlibInfoAddrEPKc
0000000100024b1c T __ZN9RNBRemote28HandlePacket_QSetDisableASLREPKc
00000001000244c4 T __ZN9RNBRemote28HandlePacket_QStartNoAckModeEPKc
000000010001ef64 T __ZN9RNBRemote28HandlePacket_qThreadStopInfoEPKc
000000010002a608 T __ZN9RNBRemote28SendStopReplyPacketForThreadEy
0000000100029acc T __ZN9RNBRemote28ThreadFunctionReadRemoteDataEPv
00000001000253f8 T __ZN9RNBRemote29HandlePacket_DeallocateMemoryEPKc
0000000100025864 T __ZN9RNBRemote29HandlePacket_MemoryRegionInfoEPKc
0000000100026d60 T __ZN9RNBRemote29HandlePacket_QSetProcessEventEPKc
0000000100024f48 T __ZN9RNBRemote29HandlePacket_QSyncThreadStateEPKc
000000010001efac T __ZN9RNBRemote29HandlePacket_qThreadExtraInfoEPKc
0000000100026df4 T __ZN9RNBRemote30HandlePacket_QSetDetachOnErrorEPKc
00000001000245f0 T __ZN9RNBRemote30HandlePacket_QSetMaxPacketSizeEPKc
00000001000254b0 T __ZN9RNBRemote30HandlePacket_SaveRegisterStateEPKc
0000000100020be8 T __ZN9RNBRemote30HandlePacket_qGDBServerVersionEPKc
0000000100026904 T __ZN9RNBRemote31HandlePacket_QEnableCompressionEPKc
00000001000246cc T __ZN9RNBRemote31HandlePacket_QSetMaxPayloadSizeEPKc
0000000100023ffc T __ZN9RNBRemote32HandlePacket_jGetSharedCacheInfoEPKc
0000000100021d44 T __ZN9RNBRemote32HandlePacket_jThreadExtendedInfoEPKc
00000001000256d4 T __ZN9RNBRemote33HandlePacket_RestoreRegisterStateEPKc
0000000100020380 T __ZN9RNBRemote33HandlePacket_qStepPacketSupportedEPKc
0000000100026a64 T __ZN9RNBRemote34HandlePacket_WatchpointSupportInfoEPKc
00000001000248ac T __ZN9RNBRemote35HandlePacket_QEnvironmentHexEncodedEPKc
0000000100024528 T __ZN9RNBRemote35HandlePacket_QThreadSuffixSupportedEPKc
0000000100024ee4 T __ZN9RNBRemote36HandlePacket_QListThreadsInStopReplyEPKc
00000001000263e4 T __ZN9RNBRemote36HandlePacket_SetEnableAsyncProfilingEPKc
00000001000203d8 T __ZN9RNBRemote36HandlePacket_qVAttachOrWaitSupportedEPKc
0000000100020430 T __ZN9RNBRemote38HandlePacket_qSyncThreadStateSupportedEPKc
00000001000232c4 T __ZN9RNBRemote44HandlePacket_jGetLoadedDynamicLibrariesInfosEPKc
0000000100030a14 t __ZN9RNBRemote6PacketC2ENS_10PacketEnumEMS_F9rnb_err_tPKcES6_S4_S4_
000000010002875c T __ZN9RNBRemote9GetPacketERNSt3__112basic_stringIcNS0_11char_traitsIcEENS0_9allocatorIcEEEERNS_6PacketEb
0000000100018e2c T __ZN9RNBRemoteC1Ev
0000000100014228 T __ZN9RNBRemoteC2Ev
0000000100019148 T __ZN9RNBRemoteD1Ev
0000000100018e30 T __ZN9RNBRemoteD2Ev
000000010003466c T __ZN9RNBSocket10DisconnectEb
0000000100034968 T __ZN9RNBSocket16ConnectToServiceEb
0000000100034cd0 T __ZN9RNBSocket4ReadERNSt3__112basic_stringIcNS0_11char_traitsIcEENS0_9allocatorIcEEEE
0000000100034eec T __ZN9RNBSocket5WriteEPKvm
0000000100034920 T __ZN9RNBSocket5useFDEi
0000000100033cac T __ZN9RNBSocket6ListenEPKctPFvPKvtES3_
0000000100034724 T __ZN9RNBSocket7ConnectEPKct
00000001000545d8 t __ZN9RNBSocket7ConnectEPKct.cold.1
0000000100034bcc T __ZN9RNBSocket8OpenFileEPKc
000000010003536c T __ZN9SysSignal4NameEi
00000001000100d4 T __ZNK10DNBDataRef5Get32EPj
0000000100010258 T __ZNK10DNBDataRef7GetCStrEPjj
0000000100010118 T __ZNK10DNBDataRef8GetMax64EPjj
00000001000498a0 T __ZNK10MachThread15GetRegisterInfoEmm
0000000100049180 T __ZNK10MachThread20GetBasicInfoAsStringEv
0000000100049b44 T __ZNK10MachThread31NumSupportedHardwareWatchpointsEv
0000000100014200 T __ZNK10RNBContext19ProcessStateRunningEv
0000000100039ce8 T __ZNK11MachProcess13GetNumThreadsEv
000000010003cf3c T __ZNK11MachProcess13GetThreadInfoEy
000000010003d034 T __ZNK11MachProcess16GetRegisterValueEyjjP16DNBRegisterValue
0000000100039cf0 T __ZNK11MachProcess16GetThreadAtIndexEm
000000010003d03c T __ZNK11MachProcess16SetRegisterValueEyjjPK16DNBRegisterValue
000000010003f91c T __ZNK11MachProcess34GetNumSupportedHardwareWatchpointsEv
000000010004dae4 T __ZNK12MachVMRegion14GetMemoryTypesEv
000000010004daa8 T __ZNK12MachVMRegion17GetDNBPermissionsEv
00000001000131c8 T __ZNK12PThreadEvent12GetEventBitsEv
00000001000133d0 T __ZNK12PThreadEvent15WaitForResetAckEjPK8timespec
00000001000132bc T __ZNK12PThreadEvent16WaitForSetEventsEjPK8timespec
000000010001334c T __ZNK12PThreadEvent20WaitForEventsToResetEjPK8timespec
0000000100012d9c T __ZNK12lldb_private13SocketAddress11IsLocalhostEv
0000000100012930 T __ZNK12lldb_private13SocketAddress12GetIPAddressEv
0000000100012a40 T __ZNK12lldb_private13SocketAddress7GetPortEv
0000000100012928 T __ZNK12lldb_private13SocketAddress9GetFamilyEv
0000000100012918 T __ZNK12lldb_private13SocketAddress9GetLengthEv
0000000100012d30 T __ZNK12lldb_private13SocketAddress9IsAnyAddrEv
0000000100012de8 T __ZNK12lldb_private13SocketAddresseqERKS0_
0000000100030c64 t __ZNK13JSONGenerator10Dictionary4DumpERNSt3__113basic_ostreamIcNS1_11char_traitsIcEEEE
0000000100031148 t __ZNK13JSONGenerator5Array4DumpERNSt3__113basic_ostreamIcNS1_11char_traitsIcEEEE
0000000100030c50 t __ZNK13JSONGenerator6Object7IsValidEv
00000001000316fc t __ZNK13JSONGenerator6String4DumpERNSt3__113basic_ostreamIcNS1_11char_traitsIcEEEE
00000001000318b4 t __ZNK13JSONGenerator7Boolean4DumpERNSt3__113basic_ostreamIcNS1_11char_traitsIcEEEE
0000000100031424 t __ZNK13JSONGenerator7Integer4DumpERNSt3__113basic_ostreamIcNS1_11char_traitsIcEEEE
00000001000384fc T __ZNK13MachException4Data11GetStopInfoEP17DNBThreadStopInfo
00000001000382d0 T __ZNK13MachException4Data4DumpEv
0000000100038228 T __ZNK13MachException7Message4DumpEv
000000010005039c T __ZNK14DNBArchMachARM23RegisterSetStateIsValidEi
000000010004b4c8 T __ZNK14MachThreadList10NumThreadsEv
000000010004a444 T __ZNK14MachThreadList13GetThreadByIDEy
000000010004ad3c T __ZNK14MachThreadList13GetThreadInfoEy
000000010004b50c T __ZNK14MachThreadList15ThreadIDAtIndexEm
000000010004aeb0 T __ZNK14MachThreadList16GetRegisterValueEyjjP16DNBRegisterValue
000000010004afc0 T __ZNK14MachThreadList16SetRegisterValueEyjjPK16DNBRegisterValue
000000010004ab94 T __ZNK14MachThreadList22GetThreadStoppedReasonEyP17DNBThreadStopInfo
000000010004c5f0 T __ZNK14MachThreadList24EnableHardwareBreakpointEPK13DNBBreakpoint
000000010004c500 T __ZNK14MachThreadList24EnableHardwareWatchpointEPK13DNBBreakpoint
000000010004c5f8 T __ZNK14MachThreadList25DisableHardwareBreakpointEPK13DNBBreakpoint
000000010004c508 T __ZNK14MachThreadList25DisableHardwareWatchpointEPK13DNBBreakpoint
000000010004c350 T __ZNK14MachThreadList26DoHardwareBreakpointActionEPK13DNBBreakpointNS_24HardwareBreakpointActionE
000000010004ae2c T __ZNK14MachThreadList27GetThreadIDByMachPortNumberEj
000000010004c6e0 T __ZNK14MachThreadList31NumSupportedHardwareWatchpointsEv
000000010004c738 T __ZNK14MachThreadList40GetThreadIndexForThreadStoppedWithSignalEi
000000010004be60 T __ZNK14MachThreadList4DumpEv
0000000100012f3c T __ZNK14PseudoTerminal13SecondaryNameEv
00000001000538c4 T __ZNK16DNBArchMachARM6423RegisterSetStateIsValidEi
000000010000a238 T __ZNK17DNBBreakpointList21RemoveTrapsFromBufferEymPv
00000001000116ec T __ZNK22DNBThreadResumeActions18GetActionForThreadEyb
0000000100011760 T __ZNK22DNBThreadResumeActions19NumActionsWithStateE11nub_state_t
0000000100011808 T __ZNK22DNBThreadResumeActions25SetSignalHandledForThreadEy
0000000100035638 T __ZNK8CFBundle13GetIdentifierEv
0000000100035648 T __ZNK8CFBundle17CopyExecutableURLEv
00000001000109e8 T __ZNK8DNBError11LogThreadedEPKcz
0000000100010950 T __ZNK8DNBError18LogThreadedIfErrorEPKcz
0000000100010868 T __ZNK8DNBError8AsStringEv
000000010002c2c8 T __ZNK9RNBRemote20DispatchQueueOffsets18GetThreadQueueInfoEiyRyRNSt3__112basic_stringIcNS2_11char_traitsIcEENS2_9allocatorIcEEEES1_S1_
0000000100044250 t __ZNKSt3__112basic_stringIcNS_11char_traitsIcEENS_9allocatorIcEEE20__throw_length_errorEv
                 U __ZNKSt3__112basic_stringIcNS_11char_traitsIcEENS_9allocatorIcEEE4findEcm
                 U __ZNKSt3__112basic_stringIcNS_11char_traitsIcEENS_9allocatorIcEEE5rfindEcm
                 U __ZNKSt3__112basic_stringIcNS_11char_traitsIcEENS_9allocatorIcEEE7compareEPKc
                 U __ZNKSt3__112basic_stringIcNS_11char_traitsIcEENS_9allocatorIcEEE7compareEmmPKcm
00000001000444c8 t __ZNKSt3__113__vector_baseI21DNBThreadResumeActionNS_9allocatorIS1_EEE20__throw_length_errorEv
000000010003535c t __ZNKSt3__113__vector_baseI6keventNS_9allocatorIS1_EEE20__throw_length_errorEv
000000010004566c t __ZNKSt3__113__vector_baseIN11MachProcess14mach_o_segmentENS_9allocatorIS2_EEE20__throw_length_errorEv
0000000100045dec t __ZNKSt3__113__vector_baseIN11MachProcess24binary_image_informationENS_9allocatorIS2_EEE20__throw_length_errorEv
00000001000460b4 t __ZNKSt3__113__vector_baseIN13MachException7MessageENS_9allocatorIS2_EEE20__throw_length_errorEv
0000000100050d0c t __ZNKSt3__113__vector_baseIN14DNBArchMachARM19disabled_watchpointENS_9allocatorIS2_EEE20__throw_length_errorEv
0000000100054474 t __ZNKSt3__113__vector_baseIN16DNBArchMachARM6419disabled_watchpointENS_9allocatorIS2_EEE20__throw_length_errorEv
00000001000460a4 t __ZNKSt3__113__vector_baseIxNS_9allocatorIxEEE20__throw_length_errorEv
0000000100048a7c t __ZNKSt3__113__vector_baseIyNS_9allocatorIyEEE20__throw_length_errorEv
                 U __ZNKSt3__115basic_stringbufIcNS_11char_traitsIcEENS_9allocatorIcEEE3strEv
                 U __ZNKSt3__119__shared_weak_count13__get_deleterERKSt9type_info
                 U __ZNKSt3__120__vector_base_commonILb1EE20__throw_length_errorEv
                 U __ZNKSt3__121__basic_string_commonILb1EE20__throw_length_errorEv
                 U __ZNKSt3__16locale9use_facetERNS0_2idE
                 U __ZNKSt3__18ios_base6getlocEv
                 U __ZNSt11logic_errorC2EPKc
00000001000351f0 t __ZNSt12length_errorC1EPKc
                 U __ZNSt12length_errorD1Ev
0000000100005bf0 t __ZNSt3__110shared_ptrI9RNBRemoteED1Ev
0000000100045798 t __ZNSt3__110shared_ptrIN13JSONGenerator10DictionaryEEC2IS2_vEEPT_
0000000100054a18 t __ZNSt3__110shared_ptrIN13JSONGenerator10DictionaryEEC2IS2_vEEPT_.cold.1
000000010004567c t __ZNSt3__110shared_ptrIN13JSONGenerator5ArrayEEC2IS2_vEEPT_
0000000100054a14 t __ZNSt3__110shared_ptrIN13JSONGenerator5ArrayEEC2IS2_vEEPT_.cold.1
00000001000308e8 t __ZNSt3__112__deque_baseINS_12basic_stringIcNS_11char_traitsIcEENS_9allocatorIcEEEENS4_IS6_EEE5clearEv
0000000100032c28 t __ZNSt3__112__hash_tableIjNS_4hashIjEENS_8equal_toIjEENS_9allocatorIjEEE25__emplace_unique_key_argsIjJRKjEEENS_4pairINS_15__hash_iteratorIPNS_11__hash_nodeIjPvEEEEbEERKT_DpOT0_
0000000100032e2c t __ZNSt3__112__hash_tableIjNS_4hashIjEENS_8equal_toIjEENS_9allocatorIjEEE6rehashEm
0000000100032f1c t __ZNSt3__112__hash_tableIjNS_4hashIjEENS_8equal_toIjEENS_9allocatorIjEEE8__rehashEm
                 U __ZNSt3__112__next_primeEm
                 U __ZNSt3__112basic_stringIcNS_11char_traitsIcEENS_9allocatorIcEEE5eraseEmm
                 U __ZNSt3__112basic_stringIcNS_11char_traitsIcEENS_9allocatorIcEEE6appendEPKc
                 U __ZNSt3__112basic_stringIcNS_11char_traitsIcEENS_9allocatorIcEEE6appendEPKcm
                 U __ZNSt3__112basic_stringIcNS_11char_traitsIcEENS_9allocatorIcEEE6appendEmc
                 U __ZNSt3__112basic_stringIcNS_11char_traitsIcEENS_9allocatorIcEEE6assignEPKc
                 U __ZNSt3__112basic_stringIcNS_11char_traitsIcEENS_9allocatorIcEEE6assignEPKcm
                 U __ZNSt3__112basic_stringIcNS_11char_traitsIcEENS_9allocatorIcEEE6assignERKS5_mm
                 U __ZNSt3__112basic_stringIcNS_11char_traitsIcEENS_9allocatorIcEEE6insertEmPKc
                 U __ZNSt3__112basic_stringIcNS_11char_traitsIcEENS_9allocatorIcEEE6resizeEmc
                 U __ZNSt3__112basic_stringIcNS_11char_traitsIcEENS_9allocatorIcEEE7reserveEm
                 U __ZNSt3__112basic_stringIcNS_11char_traitsIcEENS_9allocatorIcEEE9push_backEc
                 U __ZNSt3__112basic_stringIcNS_11char_traitsIcEENS_9allocatorIcEEEC1ERKS5_
                 U __ZNSt3__112basic_stringIcNS_11char_traitsIcEENS_9allocatorIcEEEC1ERKS5_mmRKS4_
                 U __ZNSt3__112basic_stringIcNS_11char_traitsIcEENS_9allocatorIcEEED1Ev
                 U __ZNSt3__112basic_stringIcNS_11char_traitsIcEENS_9allocatorIcEEEaSERKS5_
                 U __ZNSt3__112basic_stringIcNS_11char_traitsIcEENS_9allocatorIcEEEaSEc
0000000100050d1c t __ZNSt3__113__tree_removeIPNS_16__tree_node_baseIPvEEEEvT_S5_
                 U __ZNSt3__113basic_istreamIcNS_11char_traitsIcEEED2Ev
                 U __ZNSt3__113basic_istreamIcNS_11char_traitsIcEEErsERj
                 U __ZNSt3__113basic_ostreamIcNS_11char_traitsIcEEE3putEc
                 U __ZNSt3__113basic_ostreamIcNS_11char_traitsIcEEE5flushEv
                 U __ZNSt3__113basic_ostreamIcNS_11char_traitsIcEEE6sentryC1ERS3_
                 U __ZNSt3__113basic_ostreamIcNS_11char_traitsIcEEE6sentryD1Ev
                 U __ZNSt3__113basic_ostreamIcNS_11char_traitsIcEEED2Ev
                 U __ZNSt3__113basic_ostreamIcNS_11char_traitsIcEEElsEd
                 U __ZNSt3__113basic_ostreamIcNS_11char_traitsIcEEElsEi
                 U __ZNSt3__113basic_ostreamIcNS_11char_traitsIcEEElsEj
                 U __ZNSt3__113basic_ostreamIcNS_11char_traitsIcEEElsEm
                 U __ZNSt3__113basic_ostreamIcNS_11char_traitsIcEEElsEy
0000000100032424 t __ZNSt3__114__split_bufferIPNS_12basic_stringIcNS_11char_traitsIcEENS_9allocatorIcEEEENS4_IS7_EEE10push_frontEOS7_
0000000100032278 t __ZNSt3__114__split_bufferIPNS_12basic_stringIcNS_11char_traitsIcEENS_9allocatorIcEEEENS4_IS7_EEE9push_backEOS7_
0000000100032424 t __ZNSt3__114__split_bufferIPNS_12basic_stringIcNS_11char_traitsIcEENS_9allocatorIcEEEERNS4_IS7_EEE10push_frontERKS7_
                 U __ZNSt3__115basic_streambufIcNS_11char_traitsIcEEEC2Ev
                 U __ZNSt3__115basic_streambufIcNS_11char_traitsIcEEED2Ev
                 U __ZNSt3__115basic_stringbufIcNS_11char_traitsIcEENS_9allocatorIcEEE3strERKNS_12basic_stringIcS2_S4_EE
0000000100011ad8 t __ZNSt3__116__copy_unalignedINS_6vectorIbNS_9allocatorIbEEEELb0EEENS_14__bit_iteratorIT_Lb0EXLi0EEEENS5_IS6_XT0_EXLi0EEEES8_S7_
0000000100031a58 t __ZNSt3__116__pad_and_outputIcNS_11char_traitsIcEEEENS_19ostreambuf_iteratorIT_T0_EES6_PKS4_S8_S8_RNS_8ios_baseES4_
0000000100045ba4 t __ZNSt3__116allocator_traitsINS_9allocatorIN11MachProcess24binary_image_informationEEEE9constructIS3_JRKS3_EvEEvRS4_PT_DpOT0_
                 U __ZNSt3__119__shared_weak_count14__release_weakEv
                 U __ZNSt3__119__shared_weak_countD2Ev
0000000100047994 t __ZNSt3__119basic_ostringstreamIcNS_11char_traitsIcEENS_9allocatorIcEEEC1Ev
000000010004c9d4 t __ZNSt3__120__shared_ptr_emplaceI10MachThreadNS_9allocatorIS1_EEE16__on_zero_sharedEv
000000010004c9dc t __ZNSt3__120__shared_ptr_emplaceI10MachThreadNS_9allocatorIS1_EEE21__on_zero_shared_weakEv
000000010004c990 t __ZNSt3__120__shared_ptr_emplaceI10MachThreadNS_9allocatorIS1_EEED0Ev
000000010004c970 t __ZNSt3__120__shared_ptr_emplaceI10MachThreadNS_9allocatorIS1_EEED1Ev
00000001000097a8 t __ZNSt3__120__shared_ptr_emplaceI9RNBRemoteNS_9allocatorIS1_EEE16__on_zero_sharedEv
00000001000097b0 t __ZNSt3__120__shared_ptr_emplaceI9RNBRemoteNS_9allocatorIS1_EEE21__on_zero_shared_weakEv
0000000100009764 t __ZNSt3__120__shared_ptr_emplaceI9RNBRemoteNS_9allocatorIS1_EEED0Ev
0000000100009744 t __ZNSt3__120__shared_ptr_emplaceI9RNBRemoteNS_9allocatorIS1_EEED1Ev
0000000100032b7c t __ZNSt3__120__shared_ptr_emplaceIN13JSONGenerator5ArrayENS_9allocatorIS2_EEE16__on_zero_sharedEv
0000000100032ba0 t __ZNSt3__120__shared_ptr_emplaceIN13JSONGenerator5ArrayENS_9allocatorIS2_EEE21__on_zero_shared_weakEv
0000000100032b38 t __ZNSt3__120__shared_ptr_emplaceIN13JSONGenerator5ArrayENS_9allocatorIS2_EEED0Ev
0000000100032b18 t __ZNSt3__120__shared_ptr_emplaceIN13JSONGenerator5ArrayENS_9allocatorIS2_EEED1Ev
000000010000fe3c t __ZNSt3__120__shared_ptr_pointerIP11MachProcessNS_10shared_ptrIS1_E27__shared_ptr_default_deleteIS1_S1_EENS_9allocatorIS1_EEE16__on_zero_sharedEv
000000010000fe74 t __ZNSt3__120__shared_ptr_pointerIP11MachProcessNS_10shared_ptrIS1_E27__shared_ptr_default_deleteIS1_S1_EENS_9allocatorIS1_EEE21__on_zero_shared_weakEv
000000010000fe14 t __ZNSt3__120__shared_ptr_pointerIP11MachProcessNS_10shared_ptrIS1_E27__shared_ptr_default_deleteIS1_S1_EENS_9allocatorIS1_EEED0Ev
000000010000fe10 t __ZNSt3__120__shared_ptr_pointerIP11MachProcessNS_10shared_ptrIS1_E27__shared_ptr_default_deleteIS1_S1_EENS_9allocatorIS1_EEED1Ev
0000000100030f48 t __ZNSt3__120__shared_ptr_pointerIPN13JSONGenerator10DictionaryENS_10shared_ptrIS2_E27__shared_ptr_default_deleteIS2_S2_EENS_9allocatorIS2_EEE16__on_zero_sharedEv
000000010000fe74 t __ZNSt3__120__shared_ptr_pointerIPN13JSONGenerator10DictionaryENS_10shared_ptrIS2_E27__shared_ptr_default_deleteIS2_S2_EENS_9allocatorIS2_EEE21__on_zero_shared_weakEv
0000000100032ba8 t __ZNSt3__120__shared_ptr_pointerIPN13JSONGenerator10DictionaryENS_10shared_ptrIS2_E27__shared_ptr_default_deleteIS2_S2_EENS_9allocatorIS2_EEED0Ev
0000000100032ba4 t __ZNSt3__120__shared_ptr_pointerIPN13JSONGenerator10DictionaryENS_10shared_ptrIS2_E27__shared_ptr_default_deleteIS2_S2_EENS_9allocatorIS2_EEED1Ev
0000000100030f48 t __ZNSt3__120__shared_ptr_pointerIPN13JSONGenerator5ArrayENS_10shared_ptrIS2_E27__shared_ptr_default_deleteIS2_S2_EENS_9allocatorIS2_EEE16__on_zero_sharedEv
000000010000fe74 t __ZNSt3__120__shared_ptr_pointerIPN13JSONGenerator5ArrayENS_10shared_ptrIS2_E27__shared_ptr_default_deleteIS2_S2_EENS_9allocatorIS2_EEE21__on_zero_shared_weakEv
0000000100032bd4 t __ZNSt3__120__shared_ptr_pointerIPN13JSONGenerator5ArrayENS_10shared_ptrIS2_E27__shared_ptr_default_deleteIS2_S2_EENS_9allocatorIS2_EEED0Ev
0000000100032bd0 t __ZNSt3__120__shared_ptr_pointerIPN13JSONGenerator5ArrayENS_10shared_ptrIS2_E27__shared_ptr_default_deleteIS2_S2_EENS_9allocatorIS2_EEED1Ev
0000000100030f48 t __ZNSt3__120__shared_ptr_pointerIPN13JSONGenerator6StringENS_10shared_ptrINS1_6ObjectEE27__shared_ptr_default_deleteIS5_S2_EENS_9allocatorIS2_EEE16__on_zero_sharedEv
000000010000fe74 t __ZNSt3__120__shared_ptr_pointerIPN13JSONGenerator6StringENS_10shared_ptrINS1_6ObjectEE27__shared_ptr_default_deleteIS5_S2_EENS_9allocatorIS2_EEE21__on_zero_shared_weakEv
000000010003181c t __ZNSt3__120__shared_ptr_pointerIPN13JSONGenerator6StringENS_10shared_ptrINS1_6ObjectEE27__shared_ptr_default_deleteIS5_S2_EENS_9allocatorIS2_EEED0Ev
0000000100031818 t __ZNSt3__120__shared_ptr_pointerIPN13JSONGenerator6StringENS_10shared_ptrINS1_6ObjectEE27__shared_ptr_default_deleteIS5_S2_EENS_9allocatorIS2_EEED1Ev
0000000100030f48 t __ZNSt3__120__shared_ptr_pointerIPN13JSONGenerator7BooleanENS_10shared_ptrINS1_6ObjectEE27__shared_ptr_default_deleteIS5_S2_EENS_9allocatorIS2_EEE16__on_zero_sharedEv
000000010000fe74 t __ZNSt3__120__shared_ptr_pointerIPN13JSONGenerator7BooleanENS_10shared_ptrINS1_6ObjectEE27__shared_ptr_default_deleteIS5_S2_EENS_9allocatorIS2_EEE21__on_zero_shared_weakEv
00000001000318ec t __ZNSt3__120__shared_ptr_pointerIPN13JSONGenerator7BooleanENS_10shared_ptrINS1_6ObjectEE27__shared_ptr_default_deleteIS5_S2_EENS_9allocatorIS2_EEED0Ev
00000001000318e8 t __ZNSt3__120__shared_ptr_pointerIPN13JSONGenerator7BooleanENS_10shared_ptrINS1_6ObjectEE27__shared_ptr_default_deleteIS5_S2_EENS_9allocatorIS2_EEED1Ev
0000000100030f48 t __ZNSt3__120__shared_ptr_pointerIPN13JSONGenerator7IntegerENS_10shared_ptrINS1_6ObjectEE27__shared_ptr_default_deleteIS5_S2_EENS_9allocatorIS2_EEE16__on_zero_sharedEv
000000010000fe74 t __ZNSt3__120__shared_ptr_pointerIPN13JSONGenerator7IntegerENS_10shared_ptrINS1_6ObjectEE27__shared_ptr_default_deleteIS5_S2_EENS_9allocatorIS2_EEE21__on_zero_shared_weakEv
0000000100030f20 t __ZNSt3__120__shared_ptr_pointerIPN13JSONGenerator7IntegerENS_10shared_ptrINS1_6ObjectEE27__shared_ptr_default_deleteIS5_S2_EENS_9allocatorIS2_EEED0Ev
0000000100030f1c t __ZNSt3__120__shared_ptr_pointerIPN13JSONGenerator7IntegerENS_10shared_ptrINS1_6ObjectEE27__shared_ptr_default_deleteIS5_S2_EENS_9allocatorIS2_EEED1Ev
0000000100030f48 t __ZNSt3__120__shared_ptr_pointerIPN13JSONGenerator7IntegerENS_10shared_ptrIS2_E27__shared_ptr_default_deleteIS2_S2_EENS_9allocatorIS2_EEE16__on_zero_sharedEv
000000010000fe74 t __ZNSt3__120__shared_ptr_pointerIPN13JSONGenerator7IntegerENS_10shared_ptrIS2_E27__shared_ptr_default_deleteIS2_S2_EENS_9allocatorIS2_EEE21__on_zero_shared_weakEv
0000000100032c00 t __ZNSt3__120__shared_ptr_pointerIPN13JSONGenerator7IntegerENS_10shared_ptrIS2_E27__shared_ptr_default_deleteIS2_S2_EENS_9allocatorIS2_EEED0Ev
0000000100032bfc t __ZNSt3__120__shared_ptr_pointerIPN13JSONGenerator7IntegerENS_10shared_ptrIS2_E27__shared_ptr_default_deleteIS2_S2_EENS_9allocatorIS2_EEED1Ev
00000001000378e8 t __ZNSt3__120__shared_ptr_pointerIPN9Genealogy14ThreadActivityENS_10shared_ptrIS2_E27__shared_ptr_default_deleteIS2_S2_EENS_9allocatorIS2_EEE16__on_zero_sharedEv
000000010000fe74 t __ZNSt3__120__shared_ptr_pointerIPN9Genealogy14ThreadActivityENS_10shared_ptrIS2_E27__shared_ptr_default_deleteIS2_S2_EENS_9allocatorIS2_EEE21__on_zero_shared_weakEv
00000001000378c0 t __ZNSt3__120__shared_ptr_pointerIPN9Genealogy14ThreadActivityENS_10shared_ptrIS2_E27__shared_ptr_default_deleteIS2_S2_EENS_9allocatorIS2_EEED0Ev
00000001000378bc t __ZNSt3__120__shared_ptr_pointerIPN9Genealogy14ThreadActivityENS_10shared_ptrIS2_E27__shared_ptr_default_deleteIS2_S2_EENS_9allocatorIS2_EEED1Ev
00000001000376f8 t __ZNSt3__120__shared_ptr_pointerIPN9Genealogy21ProcessExecutableInfoENS_10shared_ptrIS2_E27__shared_ptr_default_deleteIS2_S2_EENS_9allocatorIS2_EEE16__on_zero_sharedEv
000000010000fe74 t __ZNSt3__120__shared_ptr_pointerIPN9Genealogy21ProcessExecutableInfoENS_10shared_ptrIS2_E27__shared_ptr_default_deleteIS2_S2_EENS_9allocatorIS2_EEE21__on_zero_shared_weakEv
00000001000376d0 t __ZNSt3__120__shared_ptr_pointerIPN9Genealogy21ProcessExecutableInfoENS_10shared_ptrIS2_E27__shared_ptr_default_deleteIS2_S2_EENS_9allocatorIS2_EEED0Ev
00000001000376cc t __ZNSt3__120__shared_ptr_pointerIPN9Genealogy21ProcessExecutableInfoENS_10shared_ptrIS2_E27__shared_ptr_default_deleteIS2_S2_EENS_9allocatorIS2_EEED1Ev
0000000100035194 t __ZNSt3__120__throw_length_errorEPKc
0000000100031914 t __ZNSt3__124__put_character_sequenceIcNS_11char_traitsIcEEEERNS_13basic_ostreamIT_T0_EES7_PKS4_m
000000010000fc70 t __ZNSt3__127__tree_balance_after_insertIPNS_16__tree_node_baseIPvEEEEvT_S5_
00000001000097ec t __ZNSt3__13mapIj20DNBArchPluginInfoTagNS_4lessIjEENS_9allocatorINS_4pairIKjS1_EEEEED1Ev
                 U __ZNSt3__15ctypeIcE2idE
0000000100031df8 t __ZNSt3__15dequeINS_12basic_stringIcNS_11char_traitsIcEENS_9allocatorIcEEEENS4_IS6_EEE19__add_back_capacityEv
000000010003263c t __ZNSt3__16__treeINS_12__value_typeINS_12basic_stringIcNS_11char_traitsIcEENS_9allocatorIcEEEEjEENS_19__map_value_compareIS7_S8_NS_4lessIS7_EELb1EEENS5_IS8_EEE12__find_equalIS7_EERPNS_16__tree_node_baseIPvEERPNS_15__tree_end_nodeISJ_EERKT_
0000000100032a00 t __ZNSt3__16__treeINS_12__value_typeINS_12basic_stringIcNS_11char_traitsIcEENS_9allocatorIcEEEEjEENS_19__map_value_compareIS7_S8_NS_4lessIS7_EELb1EEENS5_IS8_EEE4findIS7_EENS_15__tree_iteratorIS8_PNS_11__tree_nodeIS8_PvEElEERKT_
00000001000325d8 t __ZNSt3__16__treeINS_12__value_typeINS_12basic_stringIcNS_11char_traitsIcEENS_9allocatorIcEEEEjEENS_19__map_value_compareIS7_S8_NS_4lessIS7_EELb1EEENS5_IS8_EEE7destroyEPNS_11__tree_nodeIS8_PvEE
0000000100035078 t __ZNSt3__16__treeINS_12__value_typeIiN12lldb_private13SocketAddressEEENS_19__map_value_compareIiS4_NS_4lessIiEELb1EEENS_9allocatorIS4_EEE25__emplace_unique_key_argsIiJRKNS_21piecewise_construct_tENS_5tupleIJRKiEEENSG_IJEEEEEENS_4pairINS_15__tree_iteratorIS4_PNS_11__tree_nodeIS4_PvEElEEbEERKT_DpOT0_
000000010003501c t __ZNSt3__16__treeINS_12__value_typeIiN12lldb_private13SocketAddressEEENS_19__map_value_compareIiS4_NS_4lessIiEELb1EEENS_9allocatorIS4_EEE7destroyEPNS_11__tree_nodeIS4_PvEE
0000000100009b80 t __ZNSt3__16__treeINS_12__value_typeIj20DNBArchPluginInfoTagEENS_19__map_value_compareIjS3_NS_4lessIjEELb1EEENS_9allocatorIS3_EEE7destroyEPNS_11__tree_nodeIS3_PvEE
0000000100009b80 t __ZNSt3__16__treeINS_12__value_typeIjN14DNBArchMachARM7ContextEEENS_19__map_value_compareIjS4_NS_4lessIjEELb1EEENS_9allocatorIS4_EEE7destroyEPNS_11__tree_nodeIS4_PvEE
0000000100054484 t __ZNSt3__16__treeINS_12__value_typeIjN16DNBArchMachARM647ContextEEENS_19__map_value_compareIjS4_NS_4lessIjEELb1EEENS_9allocatorIS4_EEE7destroyEPNS_11__tree_nodeIS4_PvEE
0000000100009b80 t __ZNSt3__16__treeINS_12__value_typeIy11StackMemoryEENS_19__map_value_compareIyS3_NS_4lessIyEELb1EEENS_9allocatorIS3_EEE7destroyEPNS_11__tree_nodeIS3_PvEE
0000000100009b80 t __ZNSt3__16__treeINS_12__value_typeIy13DNBBreakpointEENS_19__map_value_compareIyS3_NS_4lessIyEELb1EEENS_9allocatorIS3_EEE7destroyEPNS_11__tree_nodeIS3_PvEE
00000001000441b4 t __ZNSt3__16__treeINS_12__value_typeIyNS_10shared_ptrIN9Genealogy14ThreadActivityEEEEENS_19__map_value_compareIyS6_NS_4lessIyEELb1EEENS_9allocatorIS6_EEE7destroyEPNS_11__tree_nodeIS6_PvEE
0000000100009b80 t __ZNSt3__16__treeINS_12__value_typeIymEENS_19__map_value_compareIyS2_NS_4lessIyEELb1EEENS_9allocatorIS2_EEE7destroyEPNS_11__tree_nodeIS2_PvEE
0000000100009b80 t __ZNSt3__16__treeINS_12__value_typeIyyEENS_19__map_value_compareIyS2_NS_4lessIyEELb1EEENS_9allocatorIS2_EEE7destroyEPNS_11__tree_nodeIS2_PvEE
                 U __ZNSt3__16localeD1Ev
000000010000fe78 t __ZNSt3__16vectorI10kinfo_procNS_9allocatorIS1_EEE8__appendEm
000000010003275c t __ZNSt3__16vectorI18register_map_entryNS_9allocatorIS1_EEE21__push_back_slow_pathIRKS1_EEvOT_
0000000100029df8 t __ZNSt3__16vectorI18register_map_entryNS_9allocatorIS1_EEED1Ev
0000000100010fec t __ZNSt3__16vectorI21DNBThreadResumeActionNS_9allocatorIS1_EEE6assignIPKS1_EENS_9enable_ifIXaasr27__is_cpp17_forward_iteratorIT_EE5valuesr16is_constructibleIS1_NS_15iterator_traitsIS9_E9referenceEEE5valueEvE4typeES9_S9_
0000000100044318 t __ZNSt3__16vectorI21DNBThreadResumeActionNS_9allocatorIS1_EEE6assignIPS1_EENS_9enable_ifIXaasr27__is_cpp17_forward_iteratorIT_EE5valuesr16is_constructibleIS1_NS_15iterator_traitsIS8_E9referenceEEE5valueEvE4typeES8_S8_
0000000100035224 t __ZNSt3__16vectorI6keventNS_9allocatorIS1_EEE8__appendEm
0000000100045480 t __ZNSt3__16vectorIN11MachProcess14mach_o_segmentENS_9allocatorIS2_EEE21__push_back_slow_pathIRKS2_EEvOT_
0000000100045ce0 t __ZNSt3__16vectorIN11MachProcess14mach_o_segmentENS_9allocatorIS2_EEEC2ERKS5_
0000000100054a1c t __ZNSt3__16vectorIN11MachProcess14mach_o_segmentENS_9allocatorIS2_EEEC2ERKS5_.cold.1
000000010004598c t __ZNSt3__16vectorIN11MachProcess24binary_image_informationENS_9allocatorIS2_EEE21__push_back_slow_pathIRKS2_EEvOT_
0000000100045dfc t __ZNSt3__16vectorIN13MachException7MessageENS_9allocatorIS2_EEE21__push_back_slow_pathIRKS2_EEvOT_
0000000100039604 t __ZNSt3__16vectorIN13MachException7MessageENS_9allocatorIS2_EEED1Ev
0000000100050b20 t __ZNSt3__16vectorIN14DNBArchMachARM19disabled_watchpointENS_9allocatorIS2_EEE8__appendEm
0000000100054294 t __ZNSt3__16vectorIN16DNBArchMachARM6419disabled_watchpointENS_9allocatorIS2_EEE8__appendEm
0000000100037358 t __ZNSt3__16vectorIN9Genealogy10BreadcrumbENS_9allocatorIS2_EEE21__push_back_slow_pathIRKS2_EEvOT_
000000010003774c t __ZNSt3__16vectorIN9Genealogy7MessageENS_9allocatorIS2_EEE21__push_back_slow_pathIRKS2_EEvOT_
00000001000374ec t __ZNSt3__16vectorIN9Genealogy8ActivityENS_9allocatorIS2_EEE21__push_back_slow_pathIRKS2_EEvOT_
0000000100031c08 t __ZNSt3__16vectorIN9RNBRemote6PacketENS_9allocatorIS2_EEE21__push_back_slow_pathIS2_EEvOT_
000000010004c7f8 t __ZNSt3__16vectorINS_10shared_ptrI10MachThreadEENS_9allocatorIS3_EEE21__push_back_slow_pathIRKS3_EEvOT_
000000010003123c t __ZNSt3__16vectorINS_10shared_ptrIN13JSONGenerator6ObjectEEENS_9allocatorIS4_EEE21__push_back_slow_pathIRKS4_EEvOT_
0000000100037a10 t __ZNSt3__16vectorINS_10shared_ptrIN9Genealogy21ProcessExecutableInfoEEENS_9allocatorIS4_EEE21__push_back_slow_pathIRKS4_EEvOT_
00000001000093c0 t __ZNSt3__16vectorINS_12basic_stringIcNS_11char_traitsIcEENS_9allocatorIcEEEENS4_IS6_EEE21__push_back_slow_pathIS6_EEvOT_
00000001000396bc t __ZNSt3__16vectorINS_12basic_stringIcNS_11char_traitsIcEENS_9allocatorIcEEEENS4_IS6_EEED1Ev
0000000100031434 t __ZNSt3__16vectorINS_4pairINS_12basic_stringIcNS_11char_traitsIcEENS_9allocatorIcEEEENS_10shared_ptrIN13JSONGenerator6ObjectEEEEENS5_ISC_EEE21__push_back_slow_pathISC_EEvOT_
000000010001193c t __ZNSt3__16vectorIbNS_9allocatorIbEEE18__construct_at_endINS_14__bit_iteratorIS3_Lb0ELm0EEEEENS_9enable_ifIXsr27__is_cpp17_forward_iteratorIT_EE5valueEvE4typeES8_S8_
0000000100011198 t __ZNSt3__16vectorIbNS_9allocatorIbEEE6assignEmRKb
000000010001187c t __ZNSt3__16vectorIbNS_9allocatorIbEEE7reserveEm
0000000100044260 t __ZNSt3__16vectorIbNS_9allocatorIbEEEaSERKS3_
000000010004a040 t __ZNSt3__16vectorIxNS_9allocatorIxEEE6assignIPxEENS_9enable_ifIXaasr27__is_cpp17_forward_iteratorIT_EE5valuesr16is_constructibleIxNS_15iterator_traitsIS7_E9referenceEEE5valueEvE4typeES7_S7_
                 U __ZNSt3__18ios_base4initEPv
                 U __ZNSt3__18ios_base5clearEj
0000000100032910 t __ZNSt3__19allocatorI18register_map_entryE9constructIS1_JRKS1_EEEvPT_DpOT0_
00000001000458b4 t __ZNSt3__19allocatorIN11MachProcess24binary_image_informationEE7destroyEPS2_
                 U __ZNSt3__19basic_iosIcNS_11char_traitsIcEEED2Ev
                 U __ZNSt3__19to_stringEj
0000000100062008 s __ZNSt3__1L19piecewise_constructE
                 U __ZNSt3__1plIcNS_11char_traitsIcEENS_9allocatorIcEEEENS_12basic_stringIT_T0_T1_EEPKS6_RKS9_
                 U __ZSt9terminatev
0000000100065620 s __ZTI10CFReleaserIP20BKSWatchdogAssertionE
0000000100067598 S __ZTI14DNBArchMachARM
0000000100067588 s __ZTI15DNBArchProtocol
000000010006bcb0 S __ZTI16DNBArchMachARM64
00000001000655f0 S __ZTI8MachTask
                 U __ZTISt12length_error
00000001000620be s __ZTS10CFReleaserIP20BKSWatchdogAssertionE
0000000100062148 S __ZTS14DNBArchMachARM
0000000100062159 s __ZTS15DNBArchProtocol
0000000100062188 S __ZTS16DNBArchMachARM64
00000001000620b4 S __ZTS8MachTask
                 U __ZTTNSt3__119basic_istringstreamIcNS_11char_traitsIcEENS_9allocatorIcEEEE
                 U __ZTTNSt3__119basic_ostringstreamIcNS_11char_traitsIcEENS_9allocatorIcEEEE
0000000100065380 s __ZTV10CFReleaserIP10__CFBundleE
0000000100065148 s __ZTV10CFReleaserIP14__CFDictionaryE
0000000100065600 s __ZTV10CFReleaserIP20BKSWatchdogAssertionE
0000000100065188 s __ZTV10CFReleaserIP9__CFArrayE
0000000100065168 s __ZTV10CFReleaserIPK10__CFNumberE
00000001000651a8 s __ZTV10CFReleaserIPK10__CFStringE
0000000100064cc8 s __ZTV10CFReleaserIPK7__CFURLE
00000001000651e8 s __ZTV10CFReleaserIPK8__CFDataE
00000001000651c8 s __ZTV10CFReleaserIPK9__CFArrayE
0000000100064d60 S __ZTV10RNBContext
0000000100067480 S __ZTV14DNBArchMachARM
000000010006bbb0 S __ZTV16DNBArchMachARM64
0000000100064d40 S __ZTV18StdStringExtractor
0000000100065360 S __ZTV8CFBundle
00000001000653a0 S __ZTV8CFString
00000001000655d0 S __ZTV8MachTask
                 U __ZTVN10__cxxabiv117__class_type_infoE
                 U __ZTVN10__cxxabiv120__si_class_type_infoE
0000000100064d80 s __ZTVN13JSONGenerator10DictionaryE
0000000100064df0 s __ZTVN13JSONGenerator5ArrayE
0000000100064e60 s __ZTVN13JSONGenerator6StringE
0000000100064ed0 s __ZTVN13JSONGenerator7BooleanE
0000000100064e28 s __ZTVN13JSONGenerator7IntegerE
                 U __ZTVNSt3__115basic_stringbufIcNS_11char_traitsIcEENS_9allocatorIcEEEE
                 U __ZTVNSt3__119basic_istringstreamIcNS_11char_traitsIcEENS_9allocatorIcEEEE
                 U __ZTVNSt3__119basic_ostringstreamIcNS_11char_traitsIcEENS_9allocatorIcEEEE
0000000100065658 s __ZTVNSt3__120__shared_ptr_emplaceI10MachThreadNS_9allocatorIS1_EEEE
0000000100064c58 s __ZTVNSt3__120__shared_ptr_emplaceI9RNBRemoteNS_9allocatorIS1_EEEE
0000000100064f40 s __ZTVNSt3__120__shared_ptr_emplaceIN13JSONGenerator5ArrayENS_9allocatorIS2_EEEE
0000000100064c90 s __ZTVNSt3__120__shared_ptr_pointerIP11MachProcessNS_10shared_ptrIS1_E27__shared_ptr_default_deleteIS1_S1_EENS_9allocatorIS1_EEEE
0000000100064f78 s __ZTVNSt3__120__shared_ptr_pointerIPN13JSONGenerator10DictionaryENS_10shared_ptrIS2_E27__shared_ptr_default_deleteIS2_S2_EENS_9allocatorIS2_EEEE
0000000100064fb0 s __ZTVNSt3__120__shared_ptr_pointerIPN13JSONGenerator5ArrayENS_10shared_ptrIS2_E27__shared_ptr_default_deleteIS2_S2_EENS_9allocatorIS2_EEEE
0000000100064e98 s __ZTVNSt3__120__shared_ptr_pointerIPN13JSONGenerator6StringENS_10shared_ptrINS1_6ObjectEE27__shared_ptr_default_deleteIS5_S2_EENS_9allocatorIS2_EEEE
0000000100064f08 s __ZTVNSt3__120__shared_ptr_pointerIPN13JSONGenerator7BooleanENS_10shared_ptrINS1_6ObjectEE27__shared_ptr_default_deleteIS5_S2_EENS_9allocatorIS2_EEEE
0000000100064db8 s __ZTVNSt3__120__shared_ptr_pointerIPN13JSONGenerator7IntegerENS_10shared_ptrINS1_6ObjectEE27__shared_ptr_default_deleteIS5_S2_EENS_9allocatorIS2_EEEE
0000000100064fe8 s __ZTVNSt3__120__shared_ptr_pointerIPN13JSONGenerator7IntegerENS_10shared_ptrIS2_E27__shared_ptr_default_deleteIS2_S2_EENS_9allocatorIS2_EEEE
0000000100065518 s __ZTVNSt3__120__shared_ptr_pointerIPN9Genealogy14ThreadActivityENS_10shared_ptrIS2_E27__shared_ptr_default_deleteIS2_S2_EENS_9allocatorIS2_EEEE
00000001000654e0 s __ZTVNSt3__120__shared_ptr_pointerIPN9Genealogy21ProcessExecutableInfoENS_10shared_ptrIS2_E27__shared_ptr_default_deleteIS2_S2_EENS_9allocatorIS2_EEEE
                 U __ZTVSt12length_error
0000000100075b90 b __ZZ14ASLLogCallbackPvjPKcPcE8g_aslmsg
0000000100075bd8 b __ZZ15_DNBLogThreadedE2tv
0000000100075c38 b __ZZ15_DNBLogThreadedE5delta.0
0000000100075c40 b __ZZ15_DNBLogThreadedE5delta.1
0000000100075bc8 b __ZZ15_DNBLogThreadedE9g_timeval
000000010006ca28 d __ZZ9CPUHasAMXvE9g_has_avx
0000000100075ba8 b __ZZL13GetProcessMapbE17g_process_map_ptr
000000010006c588 d __ZZL13GetProcessMapbE19g_process_map_mutex
0000000100476140 b __ZZL13GetSequenceIDvE8g_nextID
0000000100475d10 b __ZZL14GetHostCPUTypeRjS_S_RbE14g_host_cputype
0000000100475d1c b __ZZL14GetHostCPUTypeRjS_S_RbE16g_promoted_to_64
0000000100475d14 b __ZZL14GetHostCPUTypeRjS_S_RbE17g_host_cpusubtype
0000000100475d18 b __ZZL14GetHostCPUTypeRjS_S_RbE19g_is_64_bit_capable
0000000100075bf0 b __ZZL15_DNBLogVAPrintfjPKcPcE18g_LogThreadedMutex
0000000100475d20 b __ZZL17GetAddressingBitsRjE17g_addressing_bits
0000000100475d24 b __ZZL17GetAddressingBitsRjE31g_tried_addressing_bits_syscall
0000000100476160 b __ZZL17GetPhysicalMemoryvE10calculated
0000000100476158 b __ZZL17GetPhysicalMemoryvE15physical_memory
0000000100476148 b __ZZN12MachVMMemory16GetMemoryProfileE22DNBProfileDataScanTypej15task_basic_infoiiR15vm_statistics64RyS4_S4_S4_E9localHost
000000010006c5e0 d __ZZN14DNBArchMachARM31NumSupportedHardwareBreakpointsEvE30g_num_supported_hw_breakpoints
000000010006c5e4 d __ZZN14DNBArchMachARM31NumSupportedHardwareWatchpointsEvE30g_num_supported_hw_watchpoints
000000010006ca30 d __ZZN16DNBArchMachARM6431NumSupportedHardwareBreakpointsEvE30g_num_supported_hw_breakpoints
000000010006ca2c d __ZZN16DNBArchMachARM6431NumSupportedHardwareWatchpointsEvE30g_num_supported_hw_watchpoints
000000010006c5d8 d __ZZN8MachTask14GetProfileDataE22DNBProfileDataScanTypeE6numCPU
0000000100475d30 b __ZZN8MachTask14GetProfileDataE22DNBProfileDataScanTypeE8pagesize
0000000100075c78 b __ZZN9RNBRemote14CompressStringERKNSt3__112basic_stringIcNS0_11char_traitsIcEENS0_9allocatorIcEEEEE24g_libcompress_scratchbuf
000000010006c5c8 d __ZZN9RNBRemote14CompressStringERKNSt3__112basic_stringIcNS0_11char_traitsIcEENS0_9allocatorIcEEEEE29g_libcompress_scratchbuf_type
0000000100075c80 b __ZZN9RNBRemote17HandleAsyncPacketEPNS_10PacketEnumEE13g_packetTimer
0000000100075ca0 b __ZZN9RNBRemote20HandleReceivedPacketEPNS_10PacketEnumEE13g_packetTimer
0000000100075ce8 b __ZZN9RNBRemote23HandlePacket_qSpeedTestEPKcE6g_data
0000000100475d40 b __ZZNK10MachThread20GetBasicInfoAsStringEvE19g_basic_info_string
                 U __ZdlPv
                 U __Znwm
0000000100036308 t ___Block_byref_object_copy_
00000001000416f4 t ___Block_byref_object_copy_
00000001000363bc t ___Block_byref_object_copy_.10
0000000100036480 t ___Block_byref_object_copy_.12
0000000100036534 t ___Block_byref_object_copy_.14
0000000100044948 t ___Block_byref_object_copy_.279
000000010003632c t ___Block_byref_object_dispose_
0000000100041704 t ___Block_byref_object_dispose_
00000001000363e0 t ___Block_byref_object_dispose_.11
00000001000364a4 t ___Block_byref_object_dispose_.13
0000000100036570 t ___Block_byref_object_dispose_.15
0000000100044964 t ___Block_byref_object_dispose_.280
                 U ___CFConstantStringClassReference
0000000100044978 t ____ZL37CallBoardSystemServiceOpenApplicationI16BKSSystemService27BKSOpenApplicationErrorCodeLS1_0EXadL_ZL11SetBKSErrorlNSt3__112basic_stringIcNS2_11char_traitsIcEENS2_9allocatorIcEEEER8DNBErrorEEEbP8NSStringP12NSDictionarySA_Pi_block_invoke
00000001000450b4 t ____ZL37CallBoardSystemServiceOpenApplicationI16FBSSystemService27FBSOpenApplicationErrorCodeLS1_0EXadL_ZL11SetFBSErrorlNSt3__112basic_stringIcNS2_11char_traitsIcEENS2_9allocatorIcEEEER8DNBErrorEEEbP8NSStringP12NSDictionarySA_Pi_block_invoke
000000010003500c t ____ZL58DVTSecureSocketProxy_CreateWithLockdownConnectionFunctionsP20_lockdown_connectionPFiS0_EPFlS0_PvmEPFlS0_PKvmEU13block_pointerFvvE_block_invoke
0000000100035014 t ____ZL58DVTSecureSocketProxy_CreateWithLockdownConnectionFunctionsP20_lockdown_connectionPFiS0_EPFlS0_PvmEPFlS0_PKvmEU13block_pointerFvvE_block_invoke_2
0000000100041710 t ____ZN11MachProcess16PrepareForAttachEPKc19nub_launch_flavor_tbR8DNBError_block_invoke
000000010003c274 t ____ZN11MachProcess30GetAllLoadedBinariesViaDYLDSPIERNSt3__16vectorINS_24binary_image_informationENS0_9allocatorIS2_EEEE_block_invoke
0000000100036580 t ____ZN9Genealogy13GetActivitiesEiRK14MachThreadListj_block_invoke
0000000100036acc t ____ZN9Genealogy13GetActivitiesEiRK14MachThreadListj_block_invoke.17
0000000100036bd4 t ____ZN9Genealogy13GetActivitiesEiRK14MachThreadListj_block_invoke.22
0000000100036e9c t ____ZN9Genealogy13GetActivitiesEiRK14MachThreadListj_block_invoke.27
0000000100036640 t ____ZN9Genealogy13GetActivitiesEiRK14MachThreadListj_block_invoke_2
00000001000369ec t ____ZN9Genealogy13GetActivitiesEiRK14MachThreadListj_block_invoke_3
0000000100034b6c t ____ZN9RNBSocket16ConnectToServiceEb_block_invoke
0000000100065550 s ___block_descriptor_40_e19_v32?0Q8[16C]16r*24l
0000000100065208 s ___block_descriptor_40_e5_v8?0l
0000000100065228 s ___block_descriptor_48_e12_q24?0^v8Q16l
0000000100065248 s ___block_descriptor_48_e13_q24?0r^v8Q16l
0000000100065570 s ___block_descriptor_56_e8_32o40r48r_e17_v16?0"NSError"8l
00000001000655a0 s ___block_descriptor_89_e8_32o40o48r56r64r72r_e17_v16?0"NSError"8l
00000001000653c0 s ___block_descriptor_tmp
00000001000653f0 s ___block_descriptor_tmp.21
0000000100065420 s ___block_descriptor_tmp.26
0000000100065450 s ___block_descriptor_tmp.30
0000000100065480 s ___block_descriptor_tmp.32
00000001000654b0 s ___block_descriptor_tmp.34
                 U ___chkstk_darwin
0000000100039c88 t ___clang_call_terminate
0000000100036ab0 t ___copy_helper_block_8_32r
0000000100037168 t ___copy_helper_block_8_32r40r48r56r
0000000100037234 t ___copy_helper_block_8_32r40r48r56r64r
0000000100044b40 t ___copy_helper_block_e8_32o40o48r56r64r72r
0000000100041778 t ___copy_helper_block_e8_32o40r48r
                 U ___cxa_allocate_exception
                 U ___cxa_atexit
                 U ___cxa_begin_catch
                 U ___cxa_free_exception
                 U ___cxa_guard_acquire
                 U ___cxa_guard_release
                 U ___cxa_throw
                 U ___darwin_check_fd_set_overflow
0000000100036ac0 t ___destroy_helper_block_8_32r
00000001000371d8 t ___destroy_helper_block_8_32r40r48r56r
00000001000372b4 t ___destroy_helper_block_8_32r40r48r56r64r
0000000100044bd0 t ___destroy_helper_block_e8_32o40o48r56r64r72r
00000001000417d8 t ___destroy_helper_block_e8_32o40r48r
                 U ___error
                 U ___gxx_personality_v0
                 U ___kCFBooleanTrue
                 U ___maskrune
                 U ___stack_chk_fail
                 U ___stack_chk_guard
                 U ___stderrp
                 U ___stdoutp
                 U ___tolower
                 U __exit
                 U __get_cpu_capabilities
0000000100000000 T __mh_execute_header
                 U _abort
                 U _accept
                 U _asl_new
                 U _asl_set
                 U _asl_vlog
                 U _atoi
                 U _bind
                 U _bzero
0000000100065690 S _catch_mach_exc_subsystem
0000000100037ec0 T _catch_mach_exception_raise
0000000100037b88 T _catch_mach_exception_raise_state
0000000100037d04 T _catch_mach_exception_raise_state_identity
                 U _chdir
                 U _chmod
                 U _close
000000010006c164 D _communication_fd
                 U _compression_encode_buffer
                 U _compression_encode_scratch_buffer_size
                 U _connect
0000000100062130 S _debugserverVersionNumber
0000000100062100 S _debugserverVersionString
                 U _dispatch_release
                 U _dispatch_semaphore_create
                 U _dispatch_semaphore_signal
                 U _dispatch_semaphore_wait
                 U _dispatch_time
                 U _dlsym
                 U _dup2
                 U _execl
                 U _execv
                 U _exit
                 U _fflush
                 U _fopen
                 U _fork
                 U _fprintf
                 U _fputc
                 U _fputs
                 U _free
                 U _freeaddrinfo
                 U _fwrite
0000000100075b68 S _g_arch_plugins
000000010006c628 D _g_contained_q0
000000010006c638 D _g_contained_q1
000000010006c6c8 D _g_contained_q10
000000010006c6d8 D _g_contained_q11
000000010006c6e8 D _g_contained_q12
000000010006c6f8 D _g_contained_q13
000000010006c708 D _g_contained_q14
000000010006c718 D _g_contained_q15
000000010006c648 D _g_contained_q2
000000010006c658 D _g_contained_q3
000000010006c668 D _g_contained_q4
000000010006c678 D _g_contained_q5
000000010006c688 D _g_contained_q6
000000010006c698 D _g_contained_q7
000000010006c6a8 D _g_contained_q8
000000010006c6b8 D _g_contained_q9
000000010006cec0 D _g_contained_v0
000000010006ced0 D _g_contained_v1
000000010006cf60 D _g_contained_v10
000000010006cf70 D _g_contained_v11
000000010006cf80 D _g_contained_v12
000000010006cf90 D _g_contained_v13
000000010006cfa0 D _g_contained_v14
000000010006cfb0 D _g_contained_v15
000000010006cfc0 D _g_contained_v16
000000010006cfd0 D _g_contained_v17
000000010006cfe0 D _g_contained_v18
000000010006cff0 D _g_contained_v19
000000010006cee0 D _g_contained_v2
000000010006d000 D _g_contained_v20
000000010006d010 D _g_contained_v21
000000010006d020 D _g_contained_v22
000000010006d030 D _g_contained_v23
000000010006d040 D _g_contained_v24
000000010006d050 D _g_contained_v25
000000010006d060 D _g_contained_v26
000000010006d070 D _g_contained_v27
000000010006d080 D _g_contained_v28
000000010006d090 D _g_contained_v29
000000010006cef0 D _g_contained_v3
000000010006d0a0 D _g_contained_v30
000000010006d0b0 D _g_contained_v31
000000010006cf00 D _g_contained_v4
000000010006cf10 D _g_contained_v5
000000010006cf20 D _g_contained_v6
000000010006cf30 D _g_contained_v7
000000010006cf40 D _g_contained_v8
000000010006cf50 D _g_contained_v9
000000010006ca38 D _g_contained_x0
000000010006ca48 D _g_contained_x1
000000010006cad8 D _g_contained_x10
000000010006cae8 D _g_contained_x11
000000010006caf8 D _g_contained_x12
000000010006cb08 D _g_contained_x13
000000010006cb18 D _g_contained_x14
000000010006cb28 D _g_contained_x15
000000010006cb38 D _g_contained_x16
000000010006cb48 D _g_contained_x17
000000010006cb58 D _g_contained_x18
000000010006cb68 D _g_contained_x19
000000010006ca58 D _g_contained_x2
000000010006cb78 D _g_contained_x20
000000010006cb88 D _g_contained_x21
000000010006cb98 D _g_contained_x22
000000010006cba8 D _g_contained_x23
000000010006cbb8 D _g_contained_x24
000000010006cbc8 D _g_contained_x25
000000010006cbd8 D _g_contained_x26
000000010006cbe8 D _g_contained_x27
000000010006cbf8 D _g_contained_x28
000000010006ca68 D _g_contained_x3
000000010006ca78 D _g_contained_x4
000000010006ca88 D _g_contained_x5
000000010006ca98 D _g_contained_x6
000000010006caa8 D _g_contained_x7
000000010006cab8 D _g_contained_x8
000000010006cac8 D _g_contained_x9
000000010006c160 D _g_detach_on_error
0000000100075b58 S _g_disable_aslr
000000010006d4c0 D _g_invalidate_amx_x0
000000010006d508 D _g_invalidate_amx_x1
000000010006d550 D _g_invalidate_amx_x2
000000010006d598 D _g_invalidate_amx_x3
000000010006d5e0 D _g_invalidate_amx_x4
000000010006d628 D _g_invalidate_amx_x5
000000010006d670 D _g_invalidate_amx_x6
000000010006d6b8 D _g_invalidate_amx_x7
000000010006d700 D _g_invalidate_amx_y0
000000010006d748 D _g_invalidate_amx_y1
000000010006d790 D _g_invalidate_amx_y2
000000010006d7d8 D _g_invalidate_amx_y3
000000010006d820 D _g_invalidate_amx_y4
000000010006d868 D _g_invalidate_amx_y5
000000010006d8b0 D _g_invalidate_amx_y6
000000010006d8f8 D _g_invalidate_amx_y7
000000010006d940 D _g_invalidate_amx_z0
000000010006db48 D _g_invalidate_amx_z1
000000010006ed90 D _g_invalidate_amx_z10
000000010006ef98 D _g_invalidate_amx_z11
000000010006f1a0 D _g_invalidate_amx_z12
000000010006f3a8 D _g_invalidate_amx_z13
000000010006f5b0 D _g_invalidate_amx_z14
000000010006f7b8 D _g_invalidate_amx_z15
000000010006f9c0 D _g_invalidate_amx_z16
000000010006fbc8 D _g_invalidate_amx_z17
000000010006fdd0 D _g_invalidate_amx_z18
000000010006ffd8 D _g_invalidate_amx_z19
000000010006dd50 D _g_invalidate_amx_z2
00000001000701e0 D _g_invalidate_amx_z20
00000001000703e8 D _g_invalidate_amx_z21
00000001000705f0 D _g_invalidate_amx_z22
00000001000707f8 D _g_invalidate_amx_z23
0000000100070a00 D _g_invalidate_amx_z24
0000000100070c08 D _g_invalidate_amx_z25
0000000100070e10 D _g_invalidate_amx_z26
0000000100071018 D _g_invalidate_amx_z27
0000000100071220 D _g_invalidate_amx_z28
0000000100071428 D _g_invalidate_amx_z29
000000010006df58 D _g_invalidate_amx_z3
0000000100071630 D _g_invalidate_amx_z30
0000000100071838 D _g_invalidate_amx_z31
0000000100071a40 D _g_invalidate_amx_z32
0000000100071c48 D _g_invalidate_amx_z33
0000000100071e50 D _g_invalidate_amx_z34
0000000100072058 D _g_invalidate_amx_z35
0000000100072260 D _g_invalidate_amx_z36
0000000100072468 D _g_invalidate_amx_z37
0000000100072670 D _g_invalidate_amx_z38
0000000100072878 D _g_invalidate_amx_z39
000000010006e160 D _g_invalidate_amx_z4
0000000100072a80 D _g_invalidate_amx_z40
0000000100072c88 D _g_invalidate_amx_z41
0000000100072e90 D _g_invalidate_amx_z42
0000000100073098 D _g_invalidate_amx_z43
00000001000732a0 D _g_invalidate_amx_z44
00000001000734a8 D _g_invalidate_amx_z45
00000001000736b0 D _g_invalidate_amx_z46
00000001000738b8 D _g_invalidate_amx_z47
0000000100073ac0 D _g_invalidate_amx_z48
0000000100073cc8 D _g_invalidate_amx_z49
000000010006e368 D _g_invalidate_amx_z5
0000000100073ed0 D _g_invalidate_amx_z50
00000001000740d8 D _g_invalidate_amx_z51
00000001000742e0 D _g_invalidate_amx_z52
00000001000744e8 D _g_invalidate_amx_z53
00000001000746f0 D _g_invalidate_amx_z54
00000001000748f8 D _g_invalidate_amx_z55
0000000100074b00 D _g_invalidate_amx_z56
0000000100074d08 D _g_invalidate_amx_z57
0000000100074f10 D _g_invalidate_amx_z58
0000000100075118 D _g_invalidate_amx_z59
000000010006e570 D _g_invalidate_amx_z6
0000000100075320 D _g_invalidate_amx_z60
0000000100075528 D _g_invalidate_amx_z61
0000000100075730 D _g_invalidate_amx_z62
0000000100075938 D _g_invalidate_amx_z63
000000010006e778 D _g_invalidate_amx_z7
000000010006e980 D _g_invalidate_amx_z8
000000010006eb88 D _g_invalidate_amx_z9
000000010006c5e8 D _g_invalidate_cpsr
000000010006c728 D _g_invalidate_q0
000000010006c768 D _g_invalidate_q1
000000010006c968 D _g_invalidate_q10
000000010006c988 D _g_invalidate_q11
000000010006c9a8 D _g_invalidate_q12
000000010006c9c8 D _g_invalidate_q13
000000010006c9e8 D _g_invalidate_q14
000000010006ca08 D _g_invalidate_q15
000000010006c7a8 D _g_invalidate_q2
000000010006c7e8 D _g_invalidate_q3
000000010006c828 D _g_invalidate_q4
000000010006c868 D _g_invalidate_q5
000000010006c8a8 D _g_invalidate_q6
000000010006c8e8 D _g_invalidate_q7
000000010006c928 D _g_invalidate_q8
000000010006c948 D _g_invalidate_q9
000000010006d0c0 D _g_invalidate_v0
000000010006d0e0 D _g_invalidate_v1
000000010006d200 D _g_invalidate_v10
000000010006d220 D _g_invalidate_v11
000000010006d240 D _g_invalidate_v12
000000010006d260 D _g_invalidate_v13
000000010006d280 D _g_invalidate_v14
000000010006d2a0 D _g_invalidate_v15
000000010006d2c0 D _g_invalidate_v16
000000010006d2e0 D _g_invalidate_v17
000000010006d300 D _g_invalidate_v18
000000010006d320 D _g_invalidate_v19
000000010006d100 D _g_invalidate_v2
000000010006d340 D _g_invalidate_v20
000000010006d360 D _g_invalidate_v21
000000010006d380 D _g_invalidate_v22
000000010006d3a0 D _g_invalidate_v23
000000010006d3c0 D _g_invalidate_v24
000000010006d3e0 D _g_invalidate_v25
000000010006d400 D _g_invalidate_v26
000000010006d420 D _g_invalidate_v27
000000010006d440 D _g_invalidate_v28
000000010006d460 D _g_invalidate_v29
000000010006d120 D _g_invalidate_v3
000000010006d480 D _g_invalidate_v30
000000010006d4a0 D _g_invalidate_v31
000000010006d140 D _g_invalidate_v4
000000010006d160 D _g_invalidate_v5
000000010006d180 D _g_invalidate_v6
000000010006d1a0 D _g_invalidate_v7
000000010006d1c0 D _g_invalidate_v8
000000010006d1e0 D _g_invalidate_v9
000000010006cc08 D _g_invalidate_x0
000000010006cc20 D _g_invalidate_x1
000000010006ccf8 D _g_invalidate_x10
000000010006cd10 D _g_invalidate_x11
000000010006cd28 D _g_invalidate_x12
000000010006cd40 D _g_invalidate_x13
000000010006cd58 D _g_invalidate_x14
000000010006cd70 D _g_invalidate_x15
000000010006cd88 D _g_invalidate_x16
000000010006cda0 D _g_invalidate_x17
000000010006cdb8 D _g_invalidate_x18
000000010006cdd0 D _g_invalidate_x19
000000010006cc38 D _g_invalidate_x2
000000010006cde8 D _g_invalidate_x20
000000010006ce00 D _g_invalidate_x21
000000010006ce18 D _g_invalidate_x22
000000010006ce30 D _g_invalidate_x23
000000010006ce48 D _g_invalidate_x24
000000010006ce60 D _g_invalidate_x25
000000010006ce78 D _g_invalidate_x26
000000010006ce90 D _g_invalidate_x27
000000010006cea8 D _g_invalidate_x28
000000010006cc50 D _g_invalidate_x3
000000010006cc68 D _g_invalidate_x4
000000010006cc80 D _g_invalidate_x5
000000010006cc98 D _g_invalidate_x6
000000010006ccb0 D _g_invalidate_x7
000000010006ccc8 D _g_invalidate_x8
000000010006cce0 D _g_invalidate_x9
0000000100075b5c S _g_isatty
0000000100075b80 S _g_log_bits
0000000100075b40 S _g_pid
0000000100075b48 S _g_remoteSP
0000000100075b60 S _g_sigint_received
0000000100075b64 S _g_sigpipe_received
                 U _getaddrinfo
                 U _getenv
                 U _geteuid
                 U _getgid
                 U _getopt_long_only
                 U _getpgid
                 U _getpid
                 U _getpwuid
                 U _getsockname
                 U _gettimeofday
                 U _getuid
                 U _glob
                 U _globfree
                 U _grantpt
                 U _host_page_size
                 U _host_statistics
                 U _host_statistics64
                 U _in6addr_any
                 U _in6addr_loopback
                 U _inet_ntop
                 U _ioctl
                 U _isatty
                 U _kCFAllocatorDefault
                 U _kCFBooleanFalse
                 U _kCFBooleanTrue
                 U _kCFTypeArrayCallBacks
                 U _kCFTypeDictionaryKeyCallBacks
                 U _kCFTypeDictionaryValueCallBacks
000000010006c5d0 D _k_space_delimiters
                 U _kevent
                 U _kill
                 U _kqueue
                 U _listen
                 U _lockdown_disconnect
                 U _lockdown_get_socket
                 U _lockdown_recv
                 U _lockdown_send
                 U _mach_absolute_time
                 U _mach_error_string
000000010004e1c8 T _mach_exc_server
000000010004de38 T _mach_exc_server_routine
                 U _mach_host_self
                 U _mach_msg
                 U _mach_port_allocate
                 U _mach_port_deallocate
                 U _mach_port_insert_right
                 U _mach_task_self_
                 U _mach_thread_self
                 U _mach_vm_allocate
                 U _mach_vm_deallocate
                 U _mach_vm_page_range_query
                 U _mach_vm_protect
                 U _mach_vm_read
                 U _mach_vm_region_recurse
                 U _mach_vm_write
0000000100006f68 T _main
                 U _malloc
                 U _memchr
                 U _memcmp
                 U _memcpy
                 U _memmove
                 U _memorystatus_control
                 U _memset
                 U _objc_alloc
                 U _objc_alloc_init
                 U _objc_autoreleasePoolPop
                 U _objc_autoreleasePoolPush
                 U _objc_msgSend
                 U _objc_release
                 U _open
                 U _optarg
                 U _optind
                 U _optreset
                 U _perror
                 U _pid_for_task
                 U _pm_energy_impact
                 U _pm_sample_task_and_pid
                 U _posix_openpt
                 U _posix_spawn_file_actions_addopen
                 U _posix_spawn_file_actions_destroy
                 U _posix_spawn_file_actions_init
                 U _posix_spawnattr_destroy
                 U _posix_spawnattr_init
                 U _posix_spawnattr_setbinpref_np
                 U _posix_spawnattr_setflags
                 U _posix_spawnattr_setsigdefault
                 U _posix_spawnattr_setsigmask
                 U _posix_spawnp
                 U _printf
                 U _proc_get_cpumon_params
                 U _proc_pid_rusage
                 U _proc_pidinfo
                 U _proc_pidpath
                 U _proc_set_wakemon_params
                 U _pthread_cancel
                 U _pthread_cond_broadcast
                 U _pthread_cond_destroy
                 U _pthread_cond_init
                 U _pthread_cond_timedwait
                 U _pthread_cond_wait
                 U _pthread_create
                 U _pthread_detach
                 U _pthread_getschedparam
                 U _pthread_join
                 U _pthread_mutex_destroy
                 U _pthread_mutex_init
                 U _pthread_mutex_lock
                 U _pthread_mutex_unlock
                 U _pthread_mutexattr_destroy
                 U _pthread_mutexattr_init
                 U _pthread_mutexattr_settype
                 U _pthread_self
                 U _pthread_setname_np
                 U _pthread_setschedparam
                 U _pthread_testcancel
                 U _ptrace
                 U _ptsname
                 U _read
                 U _realpath$DARWIN_EXTSN
                 U _secure_lockdown_checkin
                 U _select
                 U _send
                 U _setgid
                 U _setlinebuf
                 U _setpgid
                 U _setsid
                 U _setsockopt
                 U _signal
                 U _sigprocmask
                 U _sleep
                 U _snprintf
                 U _socket
                 U _sscanf
                 U _stat
                 U _strcasecmp
                 U _strcasestr
                 U _strcat
                 U _strchr
                 U _strcmp
                 U _strcspn
                 U _strerror
                 U _strerror_r
                 U _strlcpy
                 U _strlen
                 U _strncasecmp
                 U _strncmp
                 U _strrchr
                 U _strstr
                 U _strtol
                 U _strtoul
                 U _strtoull
                 U _sysctl
                 U _sysctlbyname
                 U _sysctlnametomib
                 U _task_for_pid
                 U _task_get_exception_ports
                 U _task_info
                 U _task_resume
                 U _task_set_exception_ports
                 U _task_set_state
                 U _task_suspend
                 U _task_threads
                 U _tcgetattr
                 U _tcsetattr
                 U _thread_abort_safely
                 U _thread_convert_thread_state
                 U _thread_get_state
                 U _thread_info
                 U _thread_resume
                 U _thread_set_state
                 U _thread_suspend
                 U _unlockpt
                 U _unsetenv
                 U _usleep
                 U _uuid_clear
                 U _uuid_compare
                 U _uuid_copy
                 U _uuid_unparse_upper
                 U _vasprintf
                 U _vfprintf
                 U _vm_deallocate
                 U _vm_kernel_page_size
                 U _vm_machine_attribute
                 U _vm_page_size
                 U _waitpid
                 U _write
==========================================
dropbear
==========================================
000000010000c118 t _A
000000010003fc50 s _D
000000010003fdd0 s _D2
0000000100040310 S _DH_G_VAL
000000010003fcd0 s _I
0000000100041418 s _K
0000000100041518 s _K
0000000100048510 D _KARATSUBA_MUL_CUTOFF
0000000100048514 D _KARATSUBA_SQR_CUTOFF
000000010003fb50 s _L
000000010000c224 t _M
000000010000c1f0 t _S
0000000100040c18 s _TD0
0000000100040418 s _TE0
0000000100048518 D _TOOM_MUL_CUTOFF
000000010004851c D _TOOM_SQR_CUTOFF
0000000100041018 s _Td4
0000000100040818 s _Te4
000000010003f9d0 s _X
000000010003fa50 s _Y
000000010000c184 t _Z
000000010003f950 s __121665
000000010001aeec t __OSSwapInt16
                 U ___assert_rtn
                 U ___chkstk_darwin
                 U ___darwin_check_fd_set_overflow
                 U ___error
                 U ___memcpy_chk
                 U ___memmove_chk
                 U ___memset_chk
                 U ___snprintf_chk
                 U ___stack_chk_fail
                 U ___stack_chk_guard
                 U ___stderrp
                 U ___strcpy_chk
                 U ___strlcat_chk
                 U ___strlcpy_chk
                 U ___strncpy_chk
                 U ___udivti3
                 U ___vsnprintf_chk
000000010002bb18 t __base64_decode_internal
0000000100030c04 t __chacha_block
000000010002ca14 t __ctr_encrypt
0000000100048000 D __dropbear_exit
0000000100048008 D __dropbear_log
                 U __exit
0000000100000000 T __mh_execute_header
00000001000290a4 t __poly1305_block
                 U _abort
                 U _accept
000000010000d554 t _add
000000010002a5e8 t _add
0000000100020f9c t _addchildpid
0000000100021ee4 t _addhostkey
000000010002a6a8 t _addi
000000010002b4a8 t _addmod
000000010001f8cc T _addnewvar
0000000100021d1c t _addportandaddress
00000001000093dc T _addrandom
00000001000449e0 S _aes_desc
0000000100022988 t _agentaccept
0000000100012ab0 T _algolist_string
                 U _asprintf
                 U _atoi
                 U _atol
0000000100009d8c T _atomicio
000000010002bacc T _base64_decode
000000010002be9c T _base64_strict_decode
                 U _basename
                 U _bind
0000000100022710 t _bindagent
000000010000535c T _buf_burn
0000000100006608 T _buf_dss_verify
0000000100005cbc T _buf_eatstring
000000010000b36c T _buf_ecdsa_verify
000000010000e03c T _buf_ed25519_verify
0000000100005328 T _buf_free
0000000100006390 T _buf_get_dss_priv_key
0000000100006144 T _buf_get_dss_pub_key
000000010000a2cc T _buf_get_ecc_raw_pubkey
000000010000ad7c T _buf_get_ecdsa_priv_key
000000010000abbc T _buf_get_ecdsa_pub_key
000000010000b9d4 t _buf_get_ecdsa_verify_params
000000010000dccc T _buf_get_ed25519_priv_key
000000010000dbd0 T _buf_get_ed25519_pub_key
0000000100007918 T _buf_get_priv_key
0000000100007620 T _buf_get_pub_key
0000000100008870 T _buf_get_rsa_priv_key
0000000100008708 T _buf_get_rsa_pub_key
0000000100005848 T _buf_getbool
0000000100005c90 T _buf_getbuf
00000001000057e0 T _buf_getbyte
0000000100005ad8 T _buf_getint
0000000100004ce4 T _buf_getline
0000000100006024 T _buf_getmpint
000000010000590c T _buf_getptr
0000000100005a0c T _buf_getstring
0000000100005b68 T _buf_getstringbuf
0000000100005b94 t _buf_getstringbuf_int
000000010000598c T _buf_getwriteptr
0000000100012474 T _buf_has_algo
00000001000055a8 T _buf_incrlen
000000010000572c T _buf_incrpos
000000010000567c T _buf_incrwritepos
0000000100012770 T _buf_match_algo
0000000100005294 T _buf_new
000000010000548c T _buf_newcopy
0000000100012440 T _buf_put_algolist
00000001000122f0 T _buf_put_algolist_all
000000010000659c T _buf_put_dss_priv_key
00000001000064f8 T _buf_put_dss_pub_key
000000010000696c T _buf_put_dss_sign
000000010000a1ec T _buf_put_ecc_raw_pubkey_string
000000010000af08 T _buf_put_ecdsa_priv_key
000000010000ae0c T _buf_put_ecdsa_pub_key
000000010000af48 T _buf_put_ecdsa_sign
000000010000dec0 T _buf_put_ed25519_priv_key
000000010000de48 T _buf_put_ed25519_pub_key
000000010000df58 T _buf_put_ed25519_sign
0000000100007d30 T _buf_put_priv_key
0000000100007c10 T _buf_put_pub_key
0000000100008b1c T _buf_put_rsa_priv_key
0000000100008a98 T _buf_put_rsa_pub_key
0000000100009098 T _buf_put_rsa_sign
0000000100008128 T _buf_put_sign
0000000100005e18 T _buf_putbufstring
0000000100005890 T _buf_putbyte
0000000100005dc4 T _buf_putbytes
0000000100005cf8 T _buf_putint
0000000100005e54 T _buf_putmpint
0000000100005d80 T _buf_putstring
0000000100004b98 T _buf_readfile
0000000100005390 T _buf_resize
0000000100008bd0 T _buf_rsa_verify
000000010000550c T _buf_setlen
0000000100005628 T _buf_setpos
000000010000826c T _buf_verify
000000010000e788 t _buf_writefile
0000000100007068 T _bytes_to_mp
                 U _bzero
                 U _calloc
0000000100019854 t _cancel_callback
0000000100019828 T _cancel_connect
000000010000d758 t _car25519
00000001000190b8 T _cbuf_free
0000000100019148 T _cbuf_getavail
0000000100019130 T _cbuf_getused
00000001000195b0 T _cbuf_incrread
00000001000194e4 T _cbuf_incrwrite
0000000100019034 T _cbuf_new
0000000100019358 T _cbuf_readptrs
000000010001916c T _cbuf_writelen
0000000100019454 T _cbuf_writeptr
00000001000307dc T _chacha_crypt
00000001000314a8 T _chacha_ivctr64
00000001000315f0 T _chacha_keystream
000000010003168c T _chacha_setup
0000000100044938 s _chan_svr_agent
0000000100014d34 T _chancleanup
0000000100014cd8 T _chaninitialise
0000000100015ce4 T _channel_connect_done
0000000100015004 T _channelio
000000010001fd24 t _chansess_login_alloc
000000010001f0ac t _chansessionrequest
                 U _chdir
0000000100012d48 t _check_algo
0000000100015a04 t _check_close
000000010001c700 t _check_group_membership
0000000100012b40 T _check_user_algos
000000010001df10 t _checkfileperm
0000000100011824 t _checkmac
000000010001d738 t _checkpubkey
000000010001db08 t _checkpubkey_line
000000010001d9d4 t _checkpubkeyperms
0000000100010184 t _checktimeouts
000000010001c098 t _checkusername
                 U _chmod
                 U _chown
0000000100048558 S _cipher_descriptor
000000010002bf40 T _cipher_is_valid
0000000100010790 t _cleanup_buf
00000001000181d8 t _cleanup_tcp
000000010001f36c t _cleanupchansess
                 U _clock
                 U _clock_gettime
                 U _close
0000000100017384 t _close_chan_fd
000000010001f324 t _closechansess
000000010000848c T _cmp_base64_key
00000001000164b8 T _common_recv_msg_channel_data
000000010000f4f8 T _common_session_init
0000000100023928 t _commonsetup
000000010002a0a0 t _compare
000000010002a180 t _compare_d
                 U _connect
0000000100019898 T _connect_remote
000000010001a490 T _connect_set_writequeue
0000000100019dc8 t _connect_try_next
00000001000043dc T _connect_unix
0000000100005000 T _constant_time_memcmp
000000010001d2c0 t _constant_time_strcmp
0000000100029e58 t _copy
000000010002a234 t _count_bits
000000010002a288 t _count_lsb_bits
000000010004854c b _counter
                 U _crypt
000000010002bee8 T _crypt_argchk
000000010000c850 t _crypto_hash
000000010000ba7c T _crypto_init
000000010000d724 t _crypto_verify_32
000000010000dac8 t _cswap
000000010002c638 T _ctr_decrypt
000000010002c6fc T _ctr_encrypt
000000010002cc40 T _ctr_start
000000010000a0cc T _curve_for_dp
                 U _daemon
000000010001153c T _decrypt_packet
0000000100029d70 t _deinit
0000000100009bc0 T _dequeue
0000000100040190 S _dh_p_1
0000000100040210 S _dh_p_14
                 U _dirname
0000000100022484 t _disablekey
0000000100004df4 T _disallow_core
000000010002ab0c t _div_2
000000010002aa70 t _divide
0000000100048550 b _donerandinit
0000000100044530 s _dropbear_aes128
0000000100044548 s _dropbear_aes256
000000010001229c t _dropbear_big_endian_ctr_start
0000000100044788 S _dropbear_chachapoly
000000010001b2b0 t _dropbear_chachapoly_crypt
000000010001b500 t _dropbear_chachapoly_getlength
00000001000403d8 s _dropbear_chachapoly_mac
000000010001b1e8 t _dropbear_chachapoly_start
00000001000042ac T _dropbear_close
000000010000bbe8 T _dropbear_curve25519_scalarmult
0000000100048070 D _dropbear_ecc_curves
0000000100009fdc T _dropbear_ecc_fill_dp
000000010000a818 T _dropbear_ecc_shared_secret
000000010000c794 T _dropbear_ed25519_make_key
000000010000ca68 T _dropbear_ed25519_sign
000000010000d078 T _dropbear_ed25519_verify
00000001000042e4 T _dropbear_exit
000000010001a9a8 T _dropbear_listen
0000000100004364 T _dropbear_log
0000000100048090 D _dropbear_ltc_prng
00000001000447a0 S _dropbear_mode_chachapoly
0000000100044500 S _dropbear_mode_ctr
00000001000444d0 S _dropbear_mode_none
000000010003fe50 S _dropbear_nocipher
000000010003fe68 S _dropbear_nohash
0000000100009eac T _dropbear_prng_add_entropy
0000000100044448 S _dropbear_prng_desc
0000000100009f44 T _dropbear_prng_done
0000000100009f58 T _dropbear_prng_export
0000000100009fb8 T _dropbear_prng_import
0000000100009edc T _dropbear_prng_read
0000000100009ec8 T _dropbear_prng_ready
0000000100009e98 T _dropbear_prng_start
0000000100009fd4 T _dropbear_prng_test
0000000100044560 s _dropbear_sha1
0000000100044578 s _dropbear_sha2_256
0000000100006474 T _dss_key_free
0000000100040318 s _dummy
                 U _dup2
000000010002d03c T _ecc_ansi_x963_export
0000000100048010 D _ecc_curve_nistp256
0000000100048030 D _ecc_curve_nistp384
0000000100048050 D _ecc_curve_nistp521
000000010002d300 T _ecc_free
000000010000a4f0 t _ecc_is_point
000000010002d384 T _ecc_make_key
000000010002d4c8 T _ecc_make_key_ex
000000010000a9f0 T _ecdsa_signkey_type
000000010000ddf8 T _ed25519_key_free
00000001000119fc T _encrypt_packet
                 U _endusershell
0000000100009ce8 T _enqueue
0000000100012160 t _enqueue_reply_packet
                 U _environ
0000000100009c8c T _examine
0000000100020b5c t _execchild
                 U _execv
                 U _exit
0000000100004f10 T _expand_homedir_path
000000010002b2ec t _exptmod
000000010000431c T _fail_assert
                 U _fclose
                 U _fcntl
                 U _fgetc
000000010001087c T _fill_passwd
000000010002bfa4 T _find_cipher
000000010002c080 T _find_hash
00000001000142b8 T _finish_kexhashbuf
00000001000126e0 T _first_usable_algo
                 U _fopen
                 U _fork
                 U _fprintf
                 U _free
00000001000146b0 T _free_kexcurve25519_param
0000000100014078 T _free_kexdh_param
00000001000144b4 T _free_kexecdh_param
                 U _freeaddrinfo
                 U _fsync
0000000100005204 T _fsync_parent_dir
                 U _fwrite
                 U _gai_strerror
000000010002ac94 t _gcd
000000010000e9b4 T _gen_dss_priv_key
000000010000aaa4 T _gen_ecdsa_priv_key
000000010000f49c T _gen_ed25519_priv_key
000000010001460c T _gen_kexcurve25519_param
0000000100013e94 T _gen_kexdh_param
000000010001443c T _gen_kexecdh_param
0000000100013068 t _gen_new_keys
0000000100009958 T _gen_random_mpint
000000010000f050 T _gen_rsa_priv_key
0000000100004160 t _generic_dropbear_exit
00000001000041d8 t _generic_dropbear_log
00000001000097dc T _genrandom
00000001000125a0 t _get_algolist
00000001000170c0 T _get_any_ready_channel
000000010000e37c t _get_default_bits
0000000100029f9c t _get_digit
000000010002a044 t _get_digit_count
0000000100029f48 t _get_int
0000000100018850 T _get_listener
000000010001a880 T _get_sock_port
000000010001af10 T _get_socket_address
00000001000210a0 t _get_termmodes
0000000100010830 T _get_user_shell
                 U _getaddrinfo
000000010001b064 T _getaddrstring
0000000100014f24 T _getchannel
0000000100014f40 t _getchannel_msg
                 U _getenv
                 U _geteuid
000000010000edd4 t _getg
                 U _getgid
                 U _getgrnam
                 U _getgrouplist
                 U _getnameinfo
000000010000eb54 t _getp
                 U _getpeername
                 U _getpid
                 U _getpwnam
                 U _getpwuid
000000010000ea74 t _getq
000000010000f2e8 t _getrsaprime
                 U _getsockname
                 U _getsockopt
0000000100005088 T _gettime_wrapper
0000000100048530 b _gettime_wrapper.timebase_info
                 U _gettimeofday
                 U _getuid
                 U _getusershell
000000010000efb0 t _getx
000000010000efe4 t _gety
000000010003fd50 s _gf0
000000010003fad0 s _gf1
000000010001a258 T _handle_connect_fds
0000000100018420 T _handle_listeners
0000000100048918 S _hash_descriptor
000000010002c15c T _hash_is_valid
0000000100025fb4 T _hash_memory
00000001000070b8 T _hash_process_mp
0000000100014aa0 t _hashkeys
0000000100048538 b _hashpool
00000001000086a4 t _hexdig
0000000100028390 T _hmac_done
00000001000286c8 T _hmac_init
0000000100028a28 T _hmac_process
0000000100010a18 t _ident_readln
000000010001082c T _ignore_recv_response
0000000100029c0c t _init
0000000100029cb4 t _init_copy
000000010002b6f0 t _init_mpi
                 U _initgroups
0000000100009b74 T _initqueue
000000010000c400 t _inv25519
000000010002afc8 t _invmod
                 U _ioctl
0000000100009b9c T _isempty
000000010002b3e0 t _isprime
0000000100044590 s _kex_curve25519
0000000100044680 s _kex_dh_group1
0000000100044658 s _kex_dh_group14_sha1
0000000100044630 s _kex_dh_group14_sha256
0000000100044608 s _kex_ecdh_nistp256
00000001000445e0 s _kex_ecdh_nistp384
00000001000445b8 s _kex_ecdh_nistp521
00000001000146f0 T _kexcurve25519_comb_key
00000001000140c8 T _kexdh_comb_key
00000001000144f0 T _kexecdh_comb_key
0000000100013534 T _kexfirstinitialise
0000000100013560 t _kexinitialise
                 U _kill
000000010002ad54 t _lcm
0000000100017cf4 T _line_abbrevname
0000000100017b24 T _line_fullname
0000000100017c64 T _line_stripname
                 U _link
000000010001964c T _list_append
00000001000196f4 T _list_new
0000000100019730 T _list_remove
                 U _listen
0000000100017df0 T _listen_tcpfwd
000000010001826c T _listeners_initialise
0000000100023bb8 t _listensockets
00000001000418c0 s _lnz
0000000100021f58 T _load_all_hostkeys
0000000100014030 t _load_dh_p
0000000100022270 t _loadhostkey
000000010002251c t _loadhostkey_helper
                 U _localtime
000000010001798c T _login_alloc_entry
0000000100017af0 T _login_free_entry
00000001000179e0 T _login_init_entry
00000001000178d8 T _login_login
0000000100017958 T _login_logout
0000000100017bf0 T _login_set_current_time
000000010001790c T _login_write
000000010002b9fc T _ltc_cleanup_multi
000000010002b94c T _ltc_deinit_multi
000000010002ee70 T _ltc_ecc_del_point
000000010002d928 T _ltc_ecc_is_valid_idx
000000010002d9b0 T _ltc_ecc_map
000000010002dcdc T _ltc_ecc_mul2add
000000010002e678 T _ltc_ecc_mulmod
000000010002ede0 T _ltc_ecc_new_point
000000010002eed4 T _ltc_ecc_projective_add_point
000000010002fd2c T _ltc_ecc_projective_dbl_point
0000000100044f80 S _ltc_ecc_sets
000000010002b804 T _ltc_init_multi
0000000100048d28 S _ltc_mp
0000000100044de0 S _ltm_desc
0000000100041b18 S _ltm_prime_tab
0000000100006104 T _m_burn
000000010000e134 T _m_calloc
00000001000044e4 T _m_close
000000010000e30c T _m_free_ltm
000000010000e190 T _m_malloc
0000000100006ed4 T _m_mp_alloc_init_multi
0000000100006f98 T _m_mp_free_multi
0000000100006de8 T _m_mp_init
0000000100006e24 T _m_mp_init_multi
000000010000e270 T _m_realloc
000000010000e2d8 T _m_realloc_ltm
0000000100004e54 T _m_str_to_uint
000000010000e1f4 T _m_strdup
                 U _mach_absolute_time
                 U _mach_timebase_info
0000000100022cdc T _main
0000000100022d70 t _main_inetd
0000000100022e14 t _main_noinetd
00000001000203e4 t _make_connection_string
0000000100011f94 t _make_mac
00000001000417c0 s _map_base64
000000010001e5bc t _match_option
0000000100024424 t _matchtcp
0000000100011928 T _maybe_flush_reply_queue
                 U _memchr
                 U _memcmp
                 U _memcpy
                 U _memset
                 U _memset_s
                 U _mkdir
000000010000cdd8 t _modL
000000010002ab98 t _modi
00000001000051a4 T _monotonic_now
000000010002b2c4 t _montgomery_deinit
000000010002b174 t _montgomery_normalization
000000010002b200 t _montgomery_reduce
000000010002b088 t _montgomery_setup
00000001000319ec T _mp_2expt
0000000100031a74 T _mp_abs
0000000100031ab8 T _mp_add
0000000100031b74 T _mp_add_d
0000000100031d44 T _mp_addmod
0000000100031df8 T _mp_clamp
0000000100031e40 T _mp_clear
0000000100031e9c T _mp_clear_multi
0000000100031f04 T _mp_cmp
0000000100031f44 T _mp_cmp_d
0000000100031f8c T _mp_cmp_mag
0000000100031ffc T _mp_cnt_lsb
000000010003207c T _mp_copy
00000001000321e0 T _mp_count_bits
0000000100032224 T _mp_div
00000001000328d8 T _mp_div_2
0000000100032a80 T _mp_div_2d
0000000100032c64 T _mp_div_3
0000000100032e50 T _mp_div_d
000000010003310c T _mp_dr_is_modulus
0000000100033150 T _mp_dr_reduce
00000001000332d4 T _mp_dr_setup
00000001000332ec T _mp_exch
0000000100033350 T _mp_exptmod
0000000100033594 T _mp_from_ubin
0000000100033640 T _mp_gcd
0000000100033888 T _mp_get_i32
00000001000338b4 T _mp_get_l
00000001000338e0 T _mp_get_mag_u32
00000001000338fc T _mp_get_mag_ul
0000000100033944 T _mp_grow
00000001000339c8 T _mp_init
0000000100033a1c T _mp_init_copy
0000000100033a88 T _mp_init_multi
0000000100033b3c T _mp_init_set
0000000100033b94 T _mp_init_size
0000000100033bec T _mp_init_u32
0000000100033c44 T _mp_invmod
0000000100033d04 T _mp_is_square
0000000100033fc4 T _mp_kronecker
00000001000419f4 s _mp_kronecker.table
0000000100034240 T _mp_lcm
000000010003434c T _mp_lshd
00000001000343f8 T _mp_mod
00000001000344d4 T _mp_mod_2d
00000001000345a0 T _mp_mod_d
00000001000345ac T _mp_montgomery_calc_normalization
0000000100034694 T _mp_montgomery_reduce
00000001000348d8 T _mp_montgomery_setup
0000000100034934 T _mp_mul
0000000100034a28 T _mp_mul_2
0000000100034bb4 T _mp_mul_2d
0000000100034d70 T _mp_mul_d
0000000100034e70 T _mp_mulmod
0000000100034f28 T _mp_neg
0000000100034f88 T _mp_prime_is_prime
000000010003534c T _mp_prime_miller_rabin
0000000100035530 T _mp_prime_next_prime
0000000100035800 T _mp_prime_rabin_miller_trials
0000000100035af4 T _mp_prime_strong_lucas_selfridge
0000000100036178 T _mp_rand
0000000100036158 T _mp_rand_source
000000010003629c T _mp_read_radix
0000000100036434 T _mp_reduce
00000001000365d4 T _mp_reduce_2k
0000000100036738 T _mp_reduce_2k_l
000000010003683c T _mp_reduce_2k_setup
00000001000368f4 T _mp_reduce_2k_setup_l
000000010003699c T _mp_reduce_is_2k
0000000100036a2c T _mp_reduce_is_2k_l
0000000100036afc T _mp_reduce_setup
0000000100036b5c T _mp_rshd
0000000100045178 S _mp_s_rmap
0000000100041ab8 S _mp_s_rmap_reverse
0000000100041b10 S _mp_s_rmap_reverse_sz
0000000100036c8c T _mp_set
0000000100036ce4 T _mp_set_i32
0000000100036d28 T _mp_set_u32
0000000100036da0 T _mp_set_ul
0000000100036e20 T _mp_sqr
0000000100036ed4 T _mp_sqrmod
0000000100036f78 T _mp_sqrt
0000000100037130 T _mp_sub
0000000100037208 T _mp_sub_d
0000000100037384 T _mp_submod
0000000100037438 T _mp_to_radix
00000001000375dc T _mp_to_ubin
00000001000376c8 T _mp_ubin_size
00000001000376ec T _mp_zero
0000000100041798 s _mpi_to_ltc_codes
000000010002b778 t _mpi_to_ltc_error
000000010002a890 t _mul
000000010002a950 t _muli
000000010002ae14 t _mulmod
                 U _nanosleep
0000000100029dcc t _neg
000000010000da40 t _neq25519
000000010000a188 T _new_ecc_key
00000001000185b8 T _new_listener
0000000100007124 T _new_sign_key
0000000100016ae4 t _newchannel
000000010001efa4 t _newchansess
0000000100024250 t _newtcpdirect
0000000100020588 t _noptycommand
                 U _open
                 U _openlog
                 U _openpty
0000000100049238 S _opts
000000010000c9a4 t _pack
000000010000c548 t _pack25519
0000000100011f1c t _packet_is_okay_kex
000000010001a648 T _packet_queue_consume
000000010001a4b0 T _packet_queue_to_iovec
000000010000d898 t _par25519
0000000100018e50 T _parse_ciphers_macs
                 U _pipe
00000001000295cc T _poly1305_done
0000000100028b08 T _poly1305_init
0000000100028e1c T _poly1305_process
000000010000d908 t _pow2523
0000000100018ff0 T _print_version
0000000100021c68 t _printhelp
0000000100048ec8 S _prng_descriptor
000000010002c1c0 T _prng_is_valid
00000001000095c8 t _process_file
0000000100018a7c T _process_packet
000000010001c8a4 T _pty_allocate
000000010001cc70 T _pty_change_window_size
000000010001ca6c T _pty_make_controlling_tty
000000010001c978 T _pty_release
000000010001cd0c T _pty_setowner
00000001000207a4 t _ptycommand
                 U _putenv
00000001000403f0 s _rcon
                 U _read
0000000100013834 t _read_kex_algos
0000000100011014 T _read_packet
00000001000111a4 t _read_packet_init
000000010002a33c t _read_radix
00000001000103a8 t _read_session_identification
0000000100018d94 T _readhostkey
                 U _realloc
0000000100016330 T _recv_msg_channel_close
000000010001647c T _recv_msg_channel_data
00000001000162f0 T _recv_msg_channel_eof
0000000100016844 T _recv_msg_channel_open
0000000100016f10 T _recv_msg_channel_open_confirmation
0000000100017018 T _recv_msg_channel_open_failure
0000000100016378 T _recv_msg_channel_request
000000010001676c T _recv_msg_channel_window_adjust
0000000100023d70 T _recv_msg_global_request_remotetcp
000000010001b624 T _recv_msg_kexdh_init
00000001000135e8 T _recv_msg_kexinit
0000000100013504 T _recv_msg_newkeys
000000010001ee00 T _recv_msg_service_request
000000010001bd34 T _recv_msg_userauth_request
0000000100018d48 t _recv_unimplemented
000000010000ccf4 t _reduce
000000010002c224 T _register_cipher
000000010002c384 T _register_hash
000000010002c4c4 T _register_prng
0000000100041988 s _rem_105
0000000100041908 s _rem_128
00000001000189d4 T _remove_all_listeners
0000000100014ddc t _remove_channel
0000000100019afc t _remove_connect
0000000100019aa0 T _remove_connect_pending
0000000100018914 T _remove_listener
0000000100025d40 T _rijndael_done
0000000100025588 T _rijndael_ecb_decrypt
0000000100024d9c T _rijndael_ecb_encrypt
0000000100025d50 T _rijndael_keysize
00000001000244cc T _rijndael_setup
0000000100025d38 T _rijndael_test
                 U _rmdir
0000000100008a14 T _rsa_key_free
0000000100008dd0 t _rsa_pad_em
00000001000048a8 T _run_shell_command
000000010003771c T _s_mp_add
0000000100037878 T _s_mp_balance_mul
0000000100037cd0 T _s_mp_exptmod
00000001000381d4 T _s_mp_exptmod_fast
0000000100038768 T _s_mp_get_bit
00000001000387a8 T _s_mp_invmod_fast
0000000100038ac8 T _s_mp_invmod_slow
0000000100038ed8 T _s_mp_karatsuba_mul
000000010003940c T _s_mp_karatsuba_sqr
0000000100039788 T _s_mp_montgomery_reduce_fast
0000000100039c38 T _s_mp_mul_digs
0000000100039e08 T _s_mp_mul_digs_fast
000000010003a060 T _s_mp_mul_high_digs
000000010003a214 T _s_mp_mul_high_digs_fast
000000010003a4cc T _s_mp_prime_is_divisible
0000000100048528 D _s_mp_prime_tab
000000010003a570 T _s_mp_rand_platform
0000000100048520 D _s_mp_rand_source
000000010003a624 T _s_mp_reverse
000000010003a654 T _s_mp_sqr
000000010003a7d8 T _s_mp_sqr_fast
000000010003aacc T _s_mp_sub
000000010003abe8 T _s_mp_toom_mul
000000010003b5e0 T _s_mp_toom_sqr
000000010000c8e0 t _scalarbase
000000010000d454 t _scalarmult
000000010000947c T _seedrandom
000000010000c05c t _sel25519
                 U _select
000000010000ffd0 t _select_timeout
000000010001f9bc t _send_exitsignalstatus
00000001000172b0 t _send_msg_channel_close
0000000100015480 t _send_msg_channel_data
0000000100017560 t _send_msg_channel_eof
0000000100016410 T _send_msg_channel_failure
0000000100022c88 t _send_msg_channel_open_agent
0000000100015d84 t _send_msg_channel_open_confirmation
0000000100015e10 t _send_msg_channel_open_failure
0000000100016db4 T _send_msg_channel_open_init
0000000100016d48 T _send_msg_channel_success
0000000100017874 t _send_msg_channel_window_adjust
000000010001fa30 t _send_msg_chansess_exitsignal
000000010001fc28 t _send_msg_chansess_exitstatus
000000010001b950 t _send_msg_ext_info
0000000100010d60 t _send_msg_keepalive
000000010001b7c4 t _send_msg_kexdh_reply
0000000100012dcc T _send_msg_kexinit
0000000100012fdc T _send_msg_newkeys
0000000100017094 T _send_msg_request_failure
0000000100017068 T _send_msg_request_success
000000010001ef50 t _send_msg_service_accept
000000010001bcd0 T _send_msg_userauth_banner
000000010001c408 T _send_msg_userauth_failure
000000010001d964 t _send_msg_userauth_pk_ok
000000010001c394 T _send_msg_userauth_success
00000001000107e8 T _send_session_identification
0000000100049058 S _ses
000000010001f07c t _sesscheckclose
0000000100010564 T _session_cleanup
000000010000f920 T _session_loop
000000010001fe2c t _sessioncommand
0000000100020128 t _sessionpty
00000001000202ac t _sessionsignal
000000010001fd78 t _sessionwinchange
000000010001f7d8 t _sesssigchild_handler
000000010000d840 t _set25519
0000000100019bf8 T _set_connect_fds
0000000100029ee4 t _set_int
00000001000182b4 T _set_listener_fds
000000010002b690 t _set_rand
000000010001a6f8 T _set_sock_nodelay
000000010001a764 T _set_sock_priority
0000000100015ed8 T _setchannelfds
                 U _setegid
                 U _seteuid
                 U _setgid
000000010000483c T _setnonblocking
                 U _setrlimit
                 U _setsid
                 U _setsockopt
                 U _setuid
0000000100025e24 t _setup_mix
0000000100025ea8 t _setup_mix2
                 U _setusershell
0000000100026784 t _sha1_compress
0000000100044aa0 S _sha1_desc
00000001000264f4 T _sha1_done
00000001000261e0 T _sha1_init
0000000100026290 T _sha1_process
000000010002677c T _sha1_test
0000000100027300 t _sha256_compress
0000000100044b70 S _sha256_desc
0000000100027070 T _sha256_done
0000000100026d2c T _sha256_init
0000000100026e0c T _sha256_process
00000001000272f8 T _sha256_test
0000000100044c40 S _sha384_desc
0000000100027884 T _sha384_done
0000000100027764 T _sha384_init
0000000100027988 T _sha384_test
0000000100027f90 t _sha512_compress
0000000100044d10 S _sha512_desc
0000000100027d14 T _sha512_done
0000000100027990 T _sha512_init
0000000100027ab0 T _sha512_process
0000000100027f88 T _sha512_test
                 U _shutdown
                 U _sigaction
0000000100048200 D _sigalgs
0000000100023aa4 t _sigchld_handler
0000000100023a84 t _sigintterm_handler
0000000100007f78 T _sign_key_fingerprint
0000000100007e20 T _sign_key_free
0000000100007fa8 t _sign_key_sha1_fingerprint
                 U _signal
00000001000446a8 S _signames
00000001000072bc T _signature_name_from_type
0000000100007370 T _signature_type_from_name
0000000100007424 T _signature_type_from_signkey
000000010000e45c T _signkey_generate
000000010000e338 T _signkey_generate_get_bits
000000010000a994 T _signkey_is_ecdsa
0000000100007550 T _signkey_key_ptr
0000000100007168 T _signkey_name_from_type
0000000100044418 s _signkey_names
0000000100007200 T _signkey_type_from_name
00000001000074b8 T _signkey_type_from_signature
0000000100023b84 t _sigsegv_handler
0000000100041a14 s _sizes
                 U _socket
00000001000045c4 T _spawn_command
000000010002a9e4 t _sqr
000000010002af08 t _sqrmod
00000001000481b0 D _ssh_nocompress
0000000100048098 D _sshciphers
0000000100048138 D _sshhashes
0000000100048340 D _sshkex
0000000100017188 T _start_send_channel_request
000000010000427c T _startsyslog
                 U _stat
                 U _strchr
                 U _strcmp
                 U _strerror
                 U _strftime
0000000100004a60 T _stripcontrol
                 U _strlen
                 U _strncasecmp
                 U _strncmp
                 U _strrchr
                 U _strtoul
000000010002a73c t _sub
000000010002a7fc t _subi
000000010002b59c t _submod
000000010001e2c4 T _svr_add_pubkey_options
00000001000229f0 T _svr_agentcleanup
000000010002259c T _svr_agentreq
0000000100022bb8 T _svr_agentset
000000010001e81c t _svr_algos_initialise
000000010001d048 T _svr_auth_password
000000010001d338 T _svr_auth_pubkey
000000010001bc58 T _svr_authinitialise
0000000100024134 t _svr_cancelremotetcp
0000000100044970 S _svr_chan_tcpdirect
00000001000449a8 s _svr_chan_tcpremote
000000010001f540 T _svr_chansess_checksignal
000000010001f704 T _svr_chansessinitialise
00000001000484f8 d _svr_chantypes
000000010001e9b8 T _svr_dropbear_exit
000000010001ec68 T _svr_dropbear_log
000000010001b9cc t _svr_ensure_hostkey
00000001000213d0 T _svr_getopts
00000001000492a0 S _svr_opts
00000001000447d0 s _svr_packettypes
000000010001e048 T _svr_pubkey_allows_agentfwd
000000010001e138 T _svr_pubkey_allows_pty
000000010001e098 T _svr_pubkey_allows_tcpfwd
000000010001e0e8 T _svr_pubkey_allows_x11fwd
000000010001e234 T _svr_pubkey_options_cleanup
000000010001e188 T _svr_pubkey_set_forced_command
000000010001e8bc t _svr_remoteclosed
0000000100023f0c t _svr_remotetcpreq
0000000100049268 S _svr_ses
000000010001e668 T _svr_session
000000010001e930 t _svr_session_cleanup
0000000100044900 S _svrchansess
00000001000148a4 t _switch_keys
                 U _syslog
                 U _tcgetattr
0000000100017fa4 t _tcp_acceptor
0000000100017dd0 T _tcp_prio_inithandler
                 U _tcsetattr
000000010003fea0 S _termcodes
                 U _time
                 U _ttyname
000000010002a2dc t _twoexpt
                 U _unlink
000000010000bfd4 t _unpack25519
000000010000d1ec t _unpackneg
000000010002a554 t _unsigned_read
000000010002a46c t _unsigned_size
000000010002a4c0 t _unsigned_write
000000010000f7a0 T _update_channel_prio
0000000100010e0c t _update_timeout
000000010000db3c t _vn
0000000100012240 t _void_cipher
0000000100012218 t _void_start
                 U _waitpid
                 U _write
0000000100010eac T _write_packet
0000000100017208 t _write_pending
000000010002a3d0 t _write_radix
0000000100009ad0 t _write_urandom
00000001000120fc T _writebuf_enqueue
0000000100015870 t _writechannel
00000001000175bc t _writechannel_writev
                 U _writev
000000010002c604 T _zeromem
==========================================
frida
==========================================
                 U _CCRandomGenerateBytes
                 U _CC_SHA1
                 U _CFLog
                 U _CFRelease
                 U _CFRunLoopStop
                 U _CFStringCreateWithCString
                 U _NDR_record
                 U _NSDefaultRunLoopMode
                 U _OBJC_CLASS_$_NSAutoreleasePool
                 U _OBJC_CLASS_$_NSDate
                 U _OBJC_CLASS_$_NSDictionary
                 U _OBJC_CLASS_$_NSMutableArray
                 U _OBJC_CLASS_$_NSMutableDictionary
                 U _OBJC_CLASS_$_NSNumber
                 U _OBJC_CLASS_$_NSRunLoop
                 U _OBJC_CLASS_$_NSString
                 U _OBJC_CLASS_$_NSURL
                 U __Block_object_assign
                 U __Block_object_dispose
                 U __DefaultRuneLocale
                 U __NSConcreteStackBlock
                 U __NSGetExecutablePath
                 U ___CFConstantStringClassReference
                 U ____mb_cur_max_l
                 U ___error
                 U ___maskrune
                 U ___mb_cur_max
                 U ___memcpy_chk
                 U ___memmove_chk
                 U ___memset_chk
                 U ___proc_info
                 U ___srget
                 U ___stack_chk_fail
                 U ___stack_chk_guard
                 U ___stderrp
                 U ___stdinp
                 U ___stdoutp
                 U ___strcat_chk
                 U ___strcpy_chk
                 U ___strncpy_chk
                 U ___tolower
                 U ___udivti3
                 U __dispatch_source_type_mach_recv
                 U __dispatch_source_type_mach_send
                 U __exit
                 U _abort
                 U _accept
                 U _access
                 U _atexit
                 U _atof
                 U _atoi
                 U _bind
                 U _bootstrap_check_in
                 U _bootstrap_look_up
                 U _bootstrap_port
                 U _bsearch
                 U _bzero
                 U _calloc
                 U _chdir
                 U _chmod
                 U _chown
                 U _close
                 U _closedir
                 U _connect
                 U _dispatch_async
                 U _dispatch_get_global_queue
                 U _dispatch_queue_create
                 U _dispatch_release
                 U _dispatch_resume
                 U _dispatch_set_context
                 U _dispatch_source_create
                 U _dispatch_source_set_event_handler_f
                 U _dlclose
                 U _dlerror
                 U _dlopen
                 U _dlsym
                 U _dup
                 U _dup2
                 U _endfsent
                 U _endservent
                 U _environ
                 U _execv
                 U _execve
                 U _exit
                 U _fchmod
                 U _fchown
                 U _fclose
                 U _fcntl
                 U _fdopen
                 U _fdopendir
                 U _feof
                 U _ferror
                 U _fflush
                 U _fgets
                 U _fileno
                 U _fileport_makefd
                 U _fileport_makeport
                 U _fnmatch
                 U _fopen
                 U _fork
                 U _fprintf
                 U _fputc
                 U _fputs
                 U _fread
                 U _free
                 U _freeaddrinfo
                 U _frexp
                 U _frexpl
                 U _fscanf
                 U _fseek
                 U _fstat
                 U _fstatat
                 U _fsync
                 U _ftell
                 U _ftruncate
                 U _fwrite
                 U _gai_strerror
                 U _getaddrinfo
                 U _getc
                 U _getcwd
                 U _getegid
                 U _getenv
                 U _geteuid
                 U _getfsent
                 U _getfsstat
                 U _getgid
                 U _getgrgid_r
                 U _getnameinfo
                 U _getpagesize
                 U _getpeername
                 U _getpid
                 U _getppid
                 U _getpwnam_r
                 U _getpwuid
                 U _getpwuid_r
                 U _getservbyname
                 U _getsockname
                 U _getsockopt
                 U _gettimeofday
                 U _getuid
                 U _gmtime_r
                 U _h_errno
                 U _host_get_special_port
                 U _in6addr_any
                 U _in6addr_loopback
                 U _inet_aton
                 U _inet_ntop
                 U _inet_pton
                 U _isatty
                 U _issetugid
                 U _kevent
                 U _kill
                 U _kqueue
                 U _lchmod
                 U _lchown
                 U _link
                 U _listen
                 U _localeconv
                 U _localtime
                 U _lseek
                 U _lstat
                 U _mach_absolute_time
                 U _mach_error_string
                 U _mach_host_self
                 U _mach_msg
                 U _mach_msg_destroy
                 U _mach_msg_receive
                 U _mach_msg_send
                 U _mach_port_allocate
                 U _mach_port_deallocate
                 U _mach_port_extract_right
                 U _mach_port_insert_right
                 U _mach_port_mod_refs
                 U _mach_port_type
                 U _mach_task_self_
                 U _mach_thread_self
                 U _mach_timebase_info
                 U _mach_vm_allocate
                 U _mach_vm_copy
                 U _mach_vm_deallocate
                 U _mach_vm_protect
                 U _mach_vm_read_overwrite
                 U _mach_vm_region_recurse
                 U _mach_vm_remap
                 U _mach_vm_write
                 U _malloc
                 U _mbrtowc
                 U _memchr
                 U _memcmp
                 U _memcpy
                 U _memmove
                 U _memorystatus_control
                 U _memset
                 U _mig_dealloc_reply_port
                 U _mig_get_reply_port
                 U _mig_put_reply_port
                 U _mkdir
                 U _mmap
                 U _munmap
                 U _nanosleep
                 U _nl_langinfo
                 U _objc_alloc
                 U _objc_autorelease
                 U _objc_enumerationMutation
                 U _objc_msgSend
                 U _objc_release
                 U _open
                 U _openat
                 U _opendir
                 U _openpty
                 U _pid_for_task
                 U _pipe
                 U _poll
                 U _posix_memalign
                 U _posix_spawn
                 U _posix_spawn_file_actions_addclose
                 U _posix_spawn_file_actions_adddup2
                 U _posix_spawn_file_actions_destroy
                 U _posix_spawn_file_actions_init
                 U _posix_spawnattr_destroy
                 U _posix_spawnattr_init
                 U _posix_spawnattr_setflags
                 U _posix_spawnattr_setsigdefault
                 U _posix_spawnattr_setsigmask
                 U _posix_spawnp
                 U _proc_pidpath
                 U _pthread_atfork
                 U _pthread_attr_destroy
                 U _pthread_attr_init
                 U _pthread_attr_setinheritsched
                 U _pthread_attr_setstacksize
                 U _pthread_cond_broadcast
                 U _pthread_cond_destroy
                 U _pthread_cond_init
                 U _pthread_cond_signal
                 U _pthread_cond_timedwait_relative_np
                 U _pthread_cond_wait
                 U _pthread_condattr_destroy
                 U _pthread_condattr_init
                 U _pthread_create
                 U _pthread_detach
                 U _pthread_equal
                 U _pthread_getspecific
                 U _pthread_join
                 U _pthread_key_create
                 U _pthread_key_delete
                 U _pthread_mach_thread_np
                 U _pthread_mutex_destroy
                 U _pthread_mutex_init
                 U _pthread_mutex_lock
                 U _pthread_mutex_trylock
                 U _pthread_mutex_unlock
                 U _pthread_mutexattr_destroy
                 U _pthread_mutexattr_init
                 U _pthread_mutexattr_settype
                 U _pthread_once
                 U _pthread_rwlock_destroy
                 U _pthread_rwlock_init
                 U _pthread_rwlock_rdlock
                 U _pthread_rwlock_unlock
                 U _pthread_rwlock_wrlock
                 U _pthread_self
                 U _pthread_setname_np
                 U _pthread_setspecific
                 U _pthread_sigmask
                 U _ptrace
                 U _qsort
                 U _raise
                 U _read
                 U _readdir
                 U _readlink
                 U _realloc
                 U _recv
                 U _recvmsg
                 U _remove
                 U _rename
                 U _res_9_dn_expand
                 U _res_9_init
                 U _res_9_ndestroy
                 U _res_9_ninit
                 U _res_9_nquery
                 U _sched_yield
                 U _send
                 U _sendmsg
                 U _setfsent
                 U _setlocale
                 U _setsid
                 U _setsockopt
                 U _setvbuf
                 U _shutdown
                 U _sigaction
                 U _signal
                 U _socket
                 U _socketpair
                 U _sprintf
                 U _sscanf
                 U _stat
                 U _statfs
                 U _stpcpy
                 U _strcasecmp
                 U _strcat
                 U _strchr
                 U _strcmp
                 U _strcpy
                 U _strcspn
                 U _strerror
                 U _strerror_r
                 U _strftime
                 U _strlen
                 U _strncasecmp
                 U _strncmp
                 U _strncpy
                 U _strnlen
                 U _strnstr
                 U _strpbrk
                 U _strrchr
                 U _strspn
                 U _strstr
                 U _strtod
                 U _strtol
                 U _strtoul
                 U _symlink
                 U _sysconf
                 U _sysctl
                 U _sysctlbyname
                 U _task_for_pid
                 U _task_get_special_port
                 U _task_info
                 U _task_resume
                 U _task_threads
                 U _tcgetattr
                 U _tcsetattr
                 U _thread_create
                 U _thread_get_state
                 U _thread_info
                 U _thread_resume
                 U _thread_set_exception_ports
                 U _thread_set_state
                 U _thread_swap_exception_ports
                 U _time
                 U _ungetc
                 U _unlink
                 U _uselocale
                 U _utimes
                 U _vfprintf
                 U _vm_deallocate
                 U _vm_kernel_page_size
                 U _voucher_mach_msg_set
                 U _vsnprintf
                 U _waitpid
                 U _wcrtomb
                 U _wcslen
                 U _write
                 U _writev
0000000005614542 - 00 0000   OPT radr://5614542
==========================================
hello
==========================================
0000000100007ec0 s _.str
0000000100007f00 s _.str.1
0000000100007f40 s _.str.2
00000001000100f0 s ____asan_globals_registered
00000001000100c0 s ___asan_binder_.str
00000001000100d0 s ___asan_binder_.str.1
00000001000100e0 s ___asan_binder_.str.2
0000000100010000 s ___asan_global_.str
0000000100010040 s ___asan_global_.str.1
0000000100010080 s ___asan_global_.str.2
                 U ___asan_init
                 U ___asan_option_detect_stack_use_after_return
                 U ___asan_register_image_globals
                 U ___asan_report_store1
                 U ___asan_report_store4
                 U ___asan_shadow_memory_dynamic_address
                 U ___asan_stack_malloc_0
                 U ___asan_unregister_image_globals
                 U ___asan_version_mismatch_check_apple_clang_1316
0000000100007bd4 t ___os_log_helper_16_0_1_4_0
                 U ___stack_chk_fail
                 U ___stack_chk_guard
0000000100000000 T __mh_execute_header
                 U __os_log_impl
0000000100007d9c t _asan.module_ctor
0000000100007dd0 t _asan.module_dtor
                 U _getpid
000000010000796c T _main
                 U _os_log_create
                 U _os_log_type_enabled
                 U _printf
==========================================
nvram
==========================================
                 U _CFBooleanGetTypeID
                 U _CFBooleanGetValue
                 U _CFDataCreateWithBytesNoCopy
                 U _CFDataGetBytePtr
                 U _CFDataGetLength
                 U _CFDataGetTypeID
                 U _CFDictionaryApplyFunction
                 U _CFDictionaryCreate
                 U _CFGetTypeID
                 U _CFNumberCreate
                 U _CFNumberGetTypeID
                 U _CFNumberGetValue
                 U _CFPropertyListCreateData
                 U _CFPropertyListCreateWithStream
                 U _CFReadStreamClose
                 U _CFReadStreamCreateWithBytesNoCopy
                 U _CFReadStreamOpen
                 U _CFRelease
                 U _CFStringCreateWithCString
                 U _CFStringGetCString
                 U _CFStringGetLength
                 U _CFStringGetMaximumSizeForEncoding
                 U _CFStringGetTypeID
0000000100007580 t _ClearOFVariable
00000001000063f8 t _ClearOFVariables
0000000100006c00 t _ConvertValueToCFTypeRef
00000001000063c8 t _DeleteOFVariable
0000000100006f14 t _GetOFVariable
                 U _IOMasterPort
                 U _IOObjectRelease
                 U _IORegistryEntryCreateCFProperties
                 U _IORegistryEntryCreateCFProperty
                 U _IORegistryEntryFromPath
                 U _IORegistryEntrySetCFProperty
00000001000065f4 t _NVRamSyncNow
0000000100005e94 t _ParseFile
000000010000664c t _ParseXMLFile
0000000100006fdc t _PrintOFVariable
0000000100005d74 t _PrintOFVariables
00000001000068c8 t _SetOFVariable
0000000100006b00 t _SetOFVariableFromFile
0000000100006488 t _SetOrGetOFVariable
000000010000630c t _UsageMessage
                 U ___CFConstantStringClassReference
                 U ___error
                 U ___sprintf_chk
                 U ___stack_chk_fail
                 U ___stack_chk_guard
                 U ___stdoutp
                 U ___strcpy_chk
0000000100000000 T __mh_execute_header
                 U _bootstrap_port
                 U _close
                 U _err
                 U _errx
                 U _exit
                 U _fopen
                 U _free
                 U _fstat
                 U _fwrite
000000010000c008 b _gOptionsRef
000000010000c000 b _gToolName
000000010000c00d b _gUseForceSync
000000010000c00c b _gUseXML
                 U _getc
                 U _ishexnumber
                 U _isprint
                 U _isspace
                 U _kCFAllocatorDefault
                 U _kCFAllocatorNull
                 U _kCFBooleanFalse
                 U _kCFBooleanTrue
                 U _kCFTypeDictionaryKeyCallBacks
                 U _kCFTypeDictionaryValueCallBacks
                 U _mach_error_string
0000000100005970 T _main
                 U _malloc
                 U _open
                 U _printf
                 U _read
                 U _strcmp
                 U _strerror
                 U _strlen
                 U _strrchr
                 U _strtol
                 U _toupper
                 U _warnx
==========================================
simple-server
==========================================
                 U ___error
0000000100007d30 t ___os_log_helper_16_0_0
0000000100007d4c t ___os_log_helper_16_0_1_4_0
0000000100007d84 t ___os_log_helper_16_2_2_4_0_8_32
                 U ___stack_chk_fail
                 U ___stack_chk_guard
                 U ___stdoutp
0000000100000000 T __mh_execute_header
                 U __os_log_error_impl
                 U __os_log_impl
                 U _accept
                 U _bind
                 U _close
                 U _dup2
                 U _fflush
                 U _fprintf
                 U _getenv
                 U _getpid
                 U _listen
00000001000077ac T _main
                 U _os_log_create
                 U _os_log_type_enabled
                 U _perror
                 U _socket
                 U _strerror
==========================================
simple-shell
==========================================
                 U ___error
0000000100007bd4 t ___os_log_helper_16_0_0
0000000100007bf0 t ___os_log_helper_16_0_1_4_0
0000000100007c28 t ___os_log_helper_16_2_2_4_0_8_32
0000000100007ce8 t ___os_log_helper_16_2_2_8_32_8_32
0000000100007c7c t ___os_log_helper_16_2_3_4_0_8_32_8_32
                 U ___stack_chk_fail
                 U ___stack_chk_guard
                 U ___stderrp
                 U ___stdoutp
0000000100000000 T __mh_execute_header
                 U __os_log_error_impl
                 U __os_log_impl
                 U _accept
                 U _asprintf
                 U _bind
                 U _close
                 U _dup2
                 U _execvP
                 U _exit
                 U _fflush
                 U _fork
                 U _fprintf
                 U _getenv
                 U _getpid
                 U _listen
0000000100007400 T _main
                 U _os_log_create
                 U _os_log_type_enabled
                 U _perror
                 U _setenv
                 U _socket
                 U _strerror
==========================================
toybox
==========================================
                 U __DefaultRuneLocale
                 U ____mb_cur_max
                 U ___chkstk_darwin
                 U ___error
                 U ___memcpy_chk
                 U ___memmove_chk
                 U ___sprintf_chk
                 U ___stack_chk_fail
                 U ___stack_chk_guard
                 U ___stderrp
                 U ___stdinp
                 U ___stdoutp
                 U ___stpcpy_chk
                 U ___stpncpy_chk
                 U ___strcat_chk
                 U ___strcpy_chk
                 U __exit
0000000100000000 T __mh_execute_header
000000010000c20c T __xexit
                 U _accept
                 U _access
000000010001c7f0 t _add_block
00000001000373e0 t _add_to_tar
000000010001aaf8 t _addvar
                 U _alarm
0000000100038188 t _alloread
000000010002fc5c t _append_base
00000001000160f0 t _arg_add
000000010002dd8c t _arrayfind
000000010001106c T _ascii_main
                 U _atoi
                 U _atol
                 U _atoll
000000010000838c T _atolx
00000001000084d8 T _atolx_range
0000000100009410 T _base64_init
00000001000111e0 T _base64_main
                 U _basename
00000001000231e4 T _basename_main
                 U _bind
0000000100022b3c t _block_list_free
000000010000a144 T _bufgetgrgid
0000000100052290 b _bufgetgrgid.grgidbuf
000000010000a068 T _bufgetpwuid
0000000100052288 b _bufgetpwuid.pwuidbuf
                 U _bzero
000000010002329c T _cal_main
0000000100019200 t _call_function
0000000100023534 t _calstrings
0000000100023748 T _cat_main
000000010002391c T _catv_main
0000000100019278 T _cd_main
                 U _cfmakeraw
                 U _cfsetspeed
                 U _chdir
0000000100021e74 t _check_cursor_bounds
000000010000e4d4 T _check_help
0000000100023944 T _chgrp_main
                 U _chmod
0000000100023ba8 T _chmod_main
000000010000887c T _chomp
0000000100023f4c t _cksum_be
0000000100023f30 t _cksum_le
0000000100023cd4 T _cksum_main
00000001000114d0 T _clear_main
                 U _clock_gettime
                 U _close
                 U _closedir
                 U _closelog
0000000100023f64 T _cmp_main
0000000100015e58 t _collect_wildcards
000000010002f4a4 t _color_from_mode
0000000100024200 T _comm_main
0000000100006f48 T _comma_args
0000000100007018 T _comma_iterate
000000010000709c T _comma_remove
00000001000260d8 t _compar
000000010002ed38 t _compare
0000000100034714 t _compare_keys
000000010002b4fc t _compare_numsign
                 U _confstr
0000000100051eb8 d _confstrs
                 U _connect
000000010000916c T _copy_tempfile
00000001000114dc T _count_main
0000000100024450 T _cp_main
00000001000248ec t _cp_node
000000010004d180 s _cp_preserve
0000000100025258 T _cpio_main
0000000100023eb8 T _crc32_main
00000001000093a8 T _crc_init
0000000100009ebc T _create_uuid
000000010000bf54 T _crunch_escape
0000000100022688 t _crunch_nstr
000000010002f2f0 t _crunch_qb
000000010000c030 T _crunch_rev_escape
000000010000be18 T _crunch_str
                 U _ctime
00000001000229c0 t _ctrl_b
0000000100022944 t _ctrl_f
0000000100020260 t _cur_down
00000001000201dc t _cur_left
000000010002036c t _cur_right
00000001000202d0 t _cur_up
0000000100026118 t _cut_line
0000000100025d58 T _cut_main
0000000100026588 T _date_main
000000010001a098 T _declare_main
0000000100019d88 t _declarep
00000001000092bc T _delete_tempfile
000000010000b47c T _dev_major
000000010000b484 T _dev_makedev
000000010000b474 T _dev_minor
0000000100026b18 T _df_main
0000000100037264 t _dirflush
                 U _dirname
00000001000271fc T _dirname_main
00000001000071dc T _dirtree_add_node
00000001000077a4 T _dirtree_flagread
00000001000076d8 t _dirtree_handle_callback
00000001000071a0 T _dirtree_notdotdot
000000010000755c T _dirtree_parentfd
0000000100007434 T _dirtree_path
00000001000077e8 T _dirtree_read
0000000100007574 T _dirtree_recurse
000000010000a8a0 T _dlist_add
000000010001f800 T _dlist_add_before
000000010000a864 T _dlist_add_nomalloc
000000010000a818 T _dlist_lpop
000000010000a7d0 T _dlist_pop
000000010000a908 T _dlist_terminate
0000000100037234 t _do_XT
0000000100011240 t _do_base
0000000100023768 t _do_cat
0000000100023a4c t _do_chgrp
0000000100023c04 t _do_chmod
0000000100023d30 t _do_cksum
0000000100023ff4 t _do_cmp
000000010001160c t _do_dos2unix
0000000100027360 t _do_du
0000000100027b84 t _do_expand
0000000100029db4 t _do_find
000000010002bf74 t _do_grep
000000010002c8cc t _do_grep_r
000000010000ee34 t _do_hash
000000010002cc68 t _do_head
0000000100011ff8 t _do_help
000000010002ce60 t _do_iconv
000000010002d000 t _do_id
0000000100031480 t _do_line
000000010000a3b0 T _do_lines
0000000100052278 b _do_lines_bridge
000000010002f8bc t _do_nl
000000010002fdf8 t _do_od
00000001000304f0 t _do_paste
000000010002b4a0 t _do_print
000000010001ae78 t _do_prompt
0000000100031de0 t _do_rm
0000000100032e00 t _do_sed_file
0000000100016538 T _do_source
0000000100034fb0 t _do_split
0000000100035234 t _do_strings
0000000100013c24 t _do_tac
0000000100035560 t _do_tail
0000000100038818 t _do_tee_open
0000000100013f94 t _do_truncate
0000000100039dbc t _do_wc
0000000100015558 T _do_wildcard_files
0000000100014d78 t _do_xxd
0000000100014c20 t _do_xxd_include
000000010001498c t _do_xxd_reverse
00000001000115ec T _dos2unix_main
                 U _dprintf
0000000100012ecc t _draw_byte
0000000100012f14 t _draw_char
0000000100012978 t _draw_line
00000001000128fc t _draw_page
0000000100012ab8 t _draw_status
000000010000c208 T _draw_trim
000000010000c0d4 T _draw_trim_esc
0000000100027240 T _du_main
                 U _dup
                 U _dup2
0000000100027670 T _echo_main
000000010000a67c T _elf_arch_name
0000000100034258 t _emit
000000010001b680 t _end_function
000000010002f15c t _endtype
                 U _endutxent
000000010002ede4 t _entrylen
00000001000277a8 T _env_main
                 U _environ
000000010000782c T _environ_bytes
0000000100007c48 T _error_exit
0000000100007d28 T _error_exit_raw
0000000100007bd4 T _error_msg
00000001000082d4 T _estrtol
000000010001a310 T _eval_main
000000010001a454 T _exec_main
000000010002b3cc t _execdir
                 U _execve
                 U _execvp
                 U _exit
000000010001958c T _exit_main
00000001000095b8 T _exit_signal
000000010001c8dc t _expand_arg
000000010001d00c t _expand_arg_nobrace
00000001000279d4 T _expand_main
000000010001a3d8 t _expand_one_arg
000000010001bf70 t _expand_redir
0000000100019c58 T _export_main
00000001000341b4 t _extend_string
                 U _faccessat
000000010001183c t _factor
00000001000117b8 T _factor_main
0000000100031338 t _fail_hunk
0000000100011a1c T _fallocate_main
0000000100027d6c T _false_main
                 U _fchdir
                 U _fchmod
                 U _fchmodat
                 U _fchown
                 U _fchownat
                 U _fclose
                 U _fcntl
0000000100008b88 T _fdlength
                 U _fdopen$DARWIN_EXTSN
                 U _fdopendir
                 U _feof
                 U _ferror
                 U _fflush
                 U _fgetc
                 U _fgetxattr
0000000100027d80 T _file_main
0000000100009b2c T _fileunderdir
000000010002ec60 t _filter
0000000100008180 T _find_in_path
000000010001a808 T _find_job
0000000100029c48 T _find_main
0000000100012e44 t _find_next
000000010001a23c t _findvar
00000001000313e4 t _finish_oldfile
                 U _flistxattr
                 U _flock
0000000100011a80 T _flock_main
000000010002b5dc t _flush_exec
                 U _fmemopen
0000000100011b30 t _fmt_line
0000000100011b10 T _fmt_main
                 U _fnmatch
                 U _fopen$DARWIN_EXTSN
                 U _fork
000000010000a4e0 T _format_iso_time
0000000100016478 T _fpathopen
                 U _fprintf
                 U _fputc
                 U _fputs
                 U _fread
                 U _free
0000000100019be8 t _free_function
00000001000188e0 t _free_pipeline
000000010001ae24 t _free_process
                 U _freeaddrinfo
000000010000b490 T _fs_type_name
                 U _fscanf
                 U _fseek
                 U _fsetxattr
                 U _fstat
                 U _fstatat
000000010001072c t _ftp_line
00000001000101f4 T _ftpget_main
                 U _ftruncate
                 U _futimens
                 U _fwrite
0000000100009468 T _fyesno
                 U _gai_strerror
000000010000956c T _generic_signal
000000010000b498 T _get_block_device_size
0000000100034c20 t _get_key_data
00000001000307f4 T _get_line
000000010001875c t _get_next_line
0000000100006414 T _get_optflags
0000000100025fac t _get_range
                 U _getaddrinfo
0000000100009afc T _getbasename
                 U _getc
000000010002b78c T _getconf_main
                 U _getcwd
                 U _getdelim
                 U _getegid
                 U _getenv
                 U _geteuid
                 U _getgid
                 U _getgrgid
                 U _getgrgid_r
                 U _getgrnam
                 U _getgrouplist
000000010000a350 T _getgroupname
00000001000522a4 b _getgroupname.gnum
                 U _getgroups$DARWIN_EXTSN
                 U _gethostbyname
                 U _gethostname
                 U _getline
                 U _getmntinfo
                 U _getpeername
                 U _getpid
                 U _getppid
                 U _getpriority
                 U _getpwnam
                 U _getpwuid
                 U _getpwuid_r
                 U _getsid
                 U _getsockname
                 U _getuid
000000010000a2f0 T _getusername
0000000100052298 b _getusername.unum
                 U _getutxent
0000000100015258 t _getvar
0000000100014fc4 T _getvar_special
                 U _getxattr
0000000100006b78 t _gotflag
000000010002bb74 T _grep_main
000000010002d398 T _groups_main
                 U _h_errno
000000010003a7bc t _handle_entries
0000000100031910 t _handle_slash
0000000100013e14 t _handler
000000010000f97c t _hash_update
000000010002cbd4 T _head_main
0000000100007cb8 T _help_exit
0000000100011d60 T _help_main
00000001000120a8 T _hexedit_main
0000000100012b84 t _highlight
000000010000e930 T _hostname_main
                 U _hstrerror
0000000100009eac T _human_readable
0000000100009d38 T _human_readable_long
0000000100021d30 t _i_insert
                 U _iconv
000000010002cdbc T _iconv_main
                 U _iconv_open
000000010002cf94 T _id_main
0000000100022504 t _insert_str
                 U _ioctl
000000010000a5b8 T _is_tar_header
                 U _isatty
000000010000716c T _isdotdot
0000000100010130 t _itoa
00000001000383f8 t _itoo
000000010001a9b4 T _jobs_main
                 U _kevent
                 U _kill
000000010002d438 T _kill_main
000000010002d81c T _killall5_main
                 U _kqueue
                 U _lchown
0000000100053000 S _libbuf
0000000100051ed8 d _limits
0000000100021c44 t _linelist_load
                 U _link
000000010002d820 T _link_main
                 U _linkat
00000001000095dc T _list_signals
                 U _listen
000000010002e084 t _listfiles
000000010000a6f8 T _llist_free_arg
000000010000a734 T _llist_free_double
000000010000a7b4 T _llist_pop
000000010000a770 T _llist_traverse
000000010002d874 T _ln_main
                 U _localtime
                 U _localtime_r
000000010002db98 T _logger_main
000000010002d3bc T _logname_main
00000001000090f0 t _loopfile_lines_bridge
00000001000090bc T _loopfiles
00000001000090cc T _loopfiles_lines
0000000100008fa0 T _loopfiles_rw
0000000100031424 t _loosecmp
000000010002de28 T _ls_main
                 U _lseek
0000000100007e50 T _lskip
                 U _lstat
000000010000e8e8 T _main
                 U _malloc
000000010003846c t _maybe_prefix_block
000000010000f1a4 t _md5_transform
000000010000eacc T _md5sum_main
                 U _memchr
                 U _memcmp
                 U _memcpy
                 U _memmem
                 U _memmove
                 U _memset_pattern16
00000001000108b4 T _microcom_main
000000010000a490 T _millitime
                 U _mkdir
000000010002f564 T _mkdir_main
                 U _mkdirat
                 U _mkdtemp
000000010002f60c T _mkfifo_main
                 U _mknod
000000010000b204 T _mknodat
00000001000080a8 T _mkpath
0000000100007f4c T _mkpathat
                 U _mkstemp
000000010000fa58 T _mktemp_main
                 U _mktime
                 U _mmap
00000001000099d4 T _mode_to_string
00000001000234cc t _monthlen
0000000100008e74 T _msleep
                 U _munmap
000000010002523c T _mv_main
0000000100008ed0 T _nanodiff
                 U _nanosleep
0000000100010b38 T _netcat_main
                 U _newlocale
000000010002f0e8 t _next_column
000000010001ec28 t _next_hfd
0000000100009f90 T _next_printf
                 U _nice
000000010002f69c T _nice_main
                 U _nl_langinfo
000000010002f724 T _nl_main
000000010002f9e0 T _nohup_main
000000010000cbfc T _notstdio
000000010000b43c T _num_to_sig
000000010002fad8 T _od_main
00000001000301a0 t _od_out_t
000000010002ff08 t _od_outline
                 U _open
                 U _openat
                 U _opendir
                 U _openlog
000000010000ce24 T _openro
0000000100052248 d _others
00000001000380bc t _otoi
0000000100013b94 t _out
000000010002ca38 t _outline
00000001000269dc t _parse_date
000000010003230c t _parse_pattern
0000000100027a48 t _parse_tablist
000000010001b250 t _parse_word
00000001000100c0 t _parsef
0000000100030588 t _paste_files
000000010003046c T _paste_main
000000010003089c T _patch_main
                 U _pathconf
0000000100051dd8 d _pathconfs
0000000100008f60 T _peek
0000000100008f30 T _peek_be
0000000100008ef0 T _peek_le
0000000100007c70 T _perror_exit
0000000100007d48 T _perror_exit_raw
0000000100007c04 T _perror_msg
0000000100007cfc T _perror_msg_raw
                 U _pipe
000000010001f4f8 t _pipe_subshell
                 U _poll
000000010000ac9c T _pollinate
000000010001b930 t _pop_block
000000010000b2a4 T _posix_fallocate
0000000100027544 t _print
0000000100026fd8 t _print_columns
0000000100027068 t _print_header
00000001000396d4 t _print_line
000000010002f084 t _print_with_h
000000010001306c T _printenv_main
                 U _printf
0000000100031510 T _printf_main
0000000100012cc8 t _prompt
                 U _putc
                 U _putchar
                 U _puts
0000000100031a40 T _pwd_main
0000000100013188 T _pwdx_main
                 U _qsort
                 U _random
                 U _read
0000000100035a44 t _read_chunk
0000000100007d68 T _readall
                 U _readdir
0000000100008ca8 T _readfd
0000000100008e3c T _readfile
0000000100008dd8 T _readfileat
                 U _readlink
000000010000a264 T _readlink0
0000000100013250 T _readlink_main
                 U _readlinkat
000000010000a220 T _readlinkat0
                 U _realloc
0000000100013324 T _realpath_main
000000010001f184 t _recalculate
000000010001b1d0 t _redir_prefix
000000010004d080 s _redirectors
                 U _regcomp
                 U _regerror
                 U _regexec
000000010000a2b4 T _regexec0
0000000100009bf0 T _relative_path
                 U _rename
0000000100031bb4 T _renice_main
0000000100009310 T _replace_tempfile
0000000100010ae0 t _restore_states
0000000100013358 t _rev_line
0000000100013338 T _rev_main
0000000100031cc0 T _rm_main
                 U _rmdir
00000001000320b0 T _rmdir_main
000000010001b9f8 t _run_command
000000010001c858 t _run_subshell
000000010001b808 t _save_redirect
000000010000bce0 T _scan_key
000000010000ba44 T _scan_key_getsize
000000010004cd30 s _scan_key_list
00000001000222b8 t _search_str
0000000100032f48 t _sed_line
0000000100032148 T _sed_main
000000010000b510 T _sendfile_len
00000001000381e4 t _sendfile_sparse
000000010000fce8 T _seq_main
00000001000195b4 T _set_main
000000010000b898 T _set_terminal
0000000100019f58 t _set_varflags
                 U _setbuf
                 U _setenv
                 U _sethostname
                 U _setitimer
                 U _setlocale
                 U _setpgid
                 U _setpriority
                 U _setsid
00000001000133d0 T _setsid_main
                 U _setsockopt
                 U _settimeofday
                 U _setuid
                 U _setutxent
000000010001ecb8 t _setvar_long
                 U _setvbuf
000000010001a588 t _sh_exec
00000001000189c8 T _sh_main
000000010000f3d8 t _sha1_transform
0000000100046fe0 s _sha1rconsts
000000010000f5d0 t _sha2_32_transform
000000010000f7a0 t _sha2_64_transform
0000000100051148 d _sha512nofloat
000000010001ab6c T _shift_main
000000010002ba84 t _show_conf
000000010001300c t _show_error
000000010000e3b4 T _show_help
000000010001616c T _show_job
000000010003a024 t _show_lengths
0000000100026ccc t _show_mt
0000000100009f08 T _show_uuid
000000010002d3d0 t _showone
                 U _shutdown
000000010000b394 T _sig_to_num
                 U _sigaction
000000010000922c T _sigatexit
                 U _siglongjmp
                 U _signal
000000010003a794 t _signal_P
000000010004cb30 s _signames
                 U _sigsetjmp
                 U _sin
0000000100039604 t _skip
0000000100038084 t _skippy
0000000100015d0c T _slashcopy
0000000100034340 T _sleep_main
                 U _snprintf
                 U _socket
0000000100034b1c t _sort_lines
0000000100034394 T _sort_main
00000001000346dc t _sort_read
000000010001abe4 T _source_main
0000000100034ef8 T _split_main
00000001000080bc T _splitpath
                 U _sprintf
                 U _srandom
                 U _sscanf
000000010000bd54 T _start_redraw
                 U _stat
00000001000134ac T _stat_main
                 U _statfs
                 U _statvfs
0000000100008844 T _strafter
                 U _strcasecmp
0000000100008b28 T _strcasestart
                 U _strcasestr
                 U _strchr
                 U _strcmp
                 U _strcpy
                 U _strcspn
                 U _strdup
0000000100008a90 T _strend
                 U _strerror
                 U _strftime
0000000100008538 T _stridx
0000000100009680 T _string_to_mode
0000000100035214 T _strings_main
                 U _strlen
0000000100008728 T _strlower
                 U _strncasecmp
                 U _strncmp
                 U _strncpy
                 U _strndup
                 U _strnlen
0000000100013b2c t _strout
                 U _strptime
                 U _strrchr
                 U _strspn
0000000100008af0 T _strstart
                 U _strstr
                 U _strtod
                 U _strtol
                 U _strtold
                 U _strtoll
                 U _strtoul
                 U _strtoull
                 U _symlink
                 U _symlinkat
0000000100018890 t _syntax_err
                 U _sysconf
0000000100051618 d _sysconfs
                 U _syslog
0000000100013c04 T _tac_main
0000000100035af8 t _tail_continue
0000000100035450 T _tail_main
000000010000a588 T _tar_cksum
0000000100035d20 T _tar_main
                 U _tcgetattr
                 U _tcsendbreak
                 U _tcsetattr
                 U _tcsetpgrp
00000001000386f4 T _tee_main
0000000100052280 b _tempfile2zap
00000001000092a4 t _tempfile_handler
000000010000b7c8 T _terminal_probesize
000000010000b6c4 T _terminal_size
000000010003886c T _test_main
0000000100022028 t _text_byte
0000000100021f20 t _text_codepoint
0000000100022884 t _text_count
00000001000224ac t _text_eol
0000000100022380 t _text_getline
0000000100022250 t _text_psol
0000000100022088 t _text_sol
00000001000221b0 t _text_strchr
00000001000220f4 t _text_strrchr
0000000100054000 S _this
                 U _time
0000000100038e18 T _time_main
0000000100011040 t _timeout
0000000100013cbc T _timeout_main
000000010000b60c T _timer_create
000000010000b650 T _timer_settime
000000010003910c T _touch_main
                 U _towlower
                 U _towupper
000000010000e81c T _toy_exec
000000010000e858 t _toy_exec_which
000000010000e2d8 T _toy_find
000000010000e700 T _toy_init
0000000100050000 D _toy_list
000000010000e5e4 T _toy_singleinit
000000010000e0f4 T _toybox_main
0000000100051140 D _toybox_version
0000000100057000 S _toybuf
0000000100058000 S _toys
0000000100037198 t _trim2list
00000001000392ec T _true_main
0000000100013ee4 T _truncate_main
00000001000392f0 T _tty_main
000000010000bcec T _tty_reset
000000010000bd2c T _tty_sigreset
                 U _ttyname
                 U _tzset
                 U _umask
                 U _uname
0000000100039350 T _uname_main
00000001000088b8 T _unescape
0000000100008910 T _unescape2
0000000100033f20 t _unescape_delimited_string
                 U _ungetc
000000010003943c T _uniq_main
0000000100011798 T _unix2dos_main
000000010000e5a8 t _unknown
                 U _unlink
000000010003978c T _unlink_main
                 U _unlinkat
000000010001b780 t _unredirect
00000001000199d8 T _unset_main
                 U _unsetenv
                 U _uselocale
0000000100014078 T _usleep_main
0000000100010f44 t _usock
0000000100021dc4 t _utf8_dec
0000000100021fb0 t _utf8_lnw
000000010001f5f4 t _utf8chr
000000010000c090 T _utf8len
00000001000085dc T _utf8towc
                 U _utimensat
00000001000397e0 T _uudecode_main
0000000100039b34 T _uuencode_main
00000001000140fc T _uuidgen_main
0000000100015210 t _varend
0000000100007ad8 T _verror_msg
                 U _vfork
                 U _vfprintf
000000010001f864 t _vi_D
00000001000201a8 t _vi_H
000000010001f8e4 t _vi_I
0000000100020324 t _vi_L
0000000100020440 t _vi_M
000000010001f990 t _vi_O
0000000100020724 t _vi_change
00000001000515d0 D _vi_cmds
00000001000227c8 t _vi_crunch
000000010001fc20 t _vi_dd
0000000100020750 t _vi_delete
000000010002064c t _vi_dollar
00000001000206a4 t _vi_find_c
00000001000206e4 t _vi_find_cb
000000010001f9e8 t _vi_find_next
00000001000200f4 t _vi_go
000000010001f920 t _vi_join
0000000100020a94 T _vi_main
000000010001fdd0 t _vi_movb
000000010001ffe4 t _vi_move
0000000100051468 D _vi_movs
0000000100020488 t _vi_movw
000000010001fa14 t _vi_o
000000010001fa84 t _vi_push
00000001000513c8 D _vi_special
000000010001fb70 t _vi_x
00000001000209c4 t _vi_yank
000000010001fcdc t _vi_yy
000000010001fd8c t _vi_zero
00000001000198fc t _visible_vars
                 U _vprintf
                 U _vsnprintf
0000000100014140 T _w_main
                 U _wait
                 U _wait4
00000001000162a8 T _wait_job
000000010001acbc T _wait_main
000000010001eb54 t _wait_pipeline
                 U _waitpid
00000001000146f4 t _watch_child
00000001000147ac t _watch_escape
00000001000141d8 T _watch_main
0000000100039d38 T _wc_main
                 U _wcrtomb
000000010000857c T _wctoutf8
                 U _wcwidth
0000000100009100 T _wfchmodat
00000001000231a0 t _wget_find_header
0000000100022ba4 T _wget_main
000000010002312c t _wget_read
00000001000147d8 T _which_main
000000010003a128 T _who_main
000000010001f69c t _wildcard_add_files
000000010001eae0 t _wildcard_match
000000010001581c t _wildcard_matchlen
0000000100015420 T _wildcard_path
0000000100011454 t _wraputchar
                 U _write
0000000100035ab4 t _write_chunk
0000000100022a1c t _write_file
00000001000384c4 t _write_prefix_block
0000000100007ddc T _writeall
00000001000243a4 t _writeline
0000000100038370 t _wsettime
0000000100025cb0 t _x8u
000000010000cfe4 T _xabspath
000000010003a1ec T _xargs_main
000000010000b1cc T _xattr_fget
000000010000b1d8 T _xattr_flist
000000010000b1e0 T _xattr_fset
000000010000b1b4 T _xattr_get
000000010000b1c0 T _xattr_lget
000000010000ab7c T _xbind
000000010000ab74 T _xbindany
000000010000d41c T _xchdir
000000010000cb98 T _xclose
000000010000aa48 t _xconnbind
000000010000aba4 T _xconnect
000000010000aa40 T _xconnectany
000000010000cd24 T _xcreate
000000010000cb28 T _xcreate_stdio
000000010000cbc8 T _xdup
000000010000c6fc T _xexec
000000010000c238 T _xexit
000000010000ce84 T _xfdopen
000000010000c288 T _xflush
000000010000ceac T _xfopen
000000010000ae08 T _xfork
000000010000a988 T _xgetaddrinfo
000000010000cf74 T _xgetcwd
000000010000d578 T _xgetgid
000000010000d4a0 T _xgetgrgid
000000010000e058 T _xgetline
000000010000aea8 T _xgetmountlist
000000010000d45c T _xgetpwuid
000000010000ae30 T _xgetrandom
000000010000d4e4 T _xgetuid
000000010000cf4c T _xlseek
000000010000c31c T _xmalloc
000000010000c420 T _xmemdup
000000010000c2f0 T _xmmap
000000010000c468 T _xmprintf
000000010000b058 T _xnotify_add
000000010000aff0 T _xnotify_init
000000010000b124 T _xnotify_wait
000000010000cda4 T _xopen
000000010000c654 T _xopen_stdio
000000010000ce7c T _xopenro
000000010000dbd4 T _xparsedate
000000010000da08 T _xparsemillitime
000000010000d898 T _xparsetime
000000010000da3c T _xparsetimespec
000000010000ca7c T _xpclose
000000010000c9a4 T _xpclose_both
000000010000abcc T _xpoll
000000010000c9f0 T _xpopen
000000010000c64c T _xpopen_both
000000010000c788 T _xpopen_setup
000000010000c4dc T _xprintf
000000010000c600 T _xputc
000000010000c5d4 T _xputs
000000010000c510 T _xputsl
000000010000c598 T _xputsn
000000010000ceec T _xread
000000010000cf14 T _xreadall
000000010000d6ac T _xreadfile
000000010000d6a0 T _xreadlink
000000010000d60c T _xreadlinkat
000000010000c390 T _xrealloc
000000010000da6c T _xregcomp
000000010000cc84 T _xrename
000000010000cab8 T _xrun
000000010000d800 T _xsendfile
000000010000d6ec T _xsendfile_len
000000010000d768 T _xsendfile_pad
000000010000b9c8 T _xset_terminal
0000000100007884 T _xsetenv
000000010000b824 T _xsetspeed
000000010000db44 T _xsignal
000000010000b338 T _xsignal_all_killers
000000010000daec T _xsignal_flags
000000010000a924 T _xsocket
000000010000cfa4 T _xstat
000000010000c3e0 T _xstrdup
000000010000c3b8 T _xstrndup
000000010000d80c T _xstrtod
0000000100008328 T _xstrtol
000000010000ccc8 T _xtempfile
000000010000cae8 T _xunlink
0000000100007a7c T _xunsetenv
000000010000db4c T _xvali_date
000000010000c6c4 T _xvforkwrap
000000010000c930 T _xwaitpid
000000010000c560 T _xwrite
0000000100014904 T _xxd_main
000000010000c35c T _xzalloc
0000000100014f40 T _yes_main
0000000100009454 T _yesno
000000010002f218 t _zprint
EOF
