;xcrun -sdk iphoneos clang -g -O2  -mios-version-min=14.3 -DDEBUG=0  -Wall -Wpedantic -Wno-gnu -Werror -Wunused-variable -o j.out code.s
;
; This code was Released into the Public Domain and written by @5aelo of Google Project Zero 
; Hand-Rolled for your smoking enjoyment on the Apple Security Research Device by David Hoyt | SRD0009 | @h02332
;
;
  .section	__TEXT,__text,regular,pure_instructions
	.build_version ios, 14, 0	sdk_version 14, 3
	.ptrauth_abi_version 0
	.file	1 "dyld_inspector" "dyld_inspector/AppDelegate.m"
	.file	2 "dyld_inspector" "dyld_inspector/AppDelegate.h"
	.private_extern	_isReadable             ; -- Begin function isReadable
	.globl	_isReadable
	.p2align	2
_isReadable:                            ; @isReadable
Lfunc_begin0:
	.loc	1 14 0                          ; dyld_inspector/AppDelegate.m:14:0
	.cfi_startproc
; %bb.0:
	;DEBUG_VALUE: isReadable:addr <- $x0
	pacibsp
	sub	sp, sp, #48                     ; =48
	stp	x20, x19, [sp, #16]             ; 16-byte Folded Spill
	stp	x29, x30, [sp, #32]             ; 16-byte Folded Spill
	add	x29, sp, #32                    ; =32
	.cfi_def_cfa w29, 16
	.cfi_offset w30, -8
	.cfi_offset w29, -16
	.cfi_offset w19, -24
	.cfi_offset w20, -32
	mov	x19, x0
Ltmp0:
	;DEBUG_VALUE: isReadable:pfds <- 0
	;DEBUG_VALUE: isReadable:addr <- $x19
	.loc	1 15 9 prologue_end             ; dyld_inspector/AppDelegate.m:15:9
	str	xzr, [sp, #8]
Ltmp1:
	;DEBUG_VALUE: isReadable:pfds <- [DW_OP_plus_uconst 8, DW_OP_deref] $sp
	.loc	1 16 9                          ; dyld_inspector/AppDelegate.m:16:9
	add	x0, sp, #8                      ; =8
	bl	_pipe
Ltmp2:
	.loc	1 16 9 is_stmt 0                ; dyld_inspector/AppDelegate.m:16:9
	cbnz	w0, LBB0_2
Ltmp3:
; %bb.1:
	;DEBUG_VALUE: isReadable:addr <- $x19
	;DEBUG_VALUE: isReadable:pfds <- [DW_OP_plus_uconst 8, DW_OP_deref] $sp
	.loc	1 20 25 is_stmt 1               ; dyld_inspector/AppDelegate.m:20:25
	ldr	w0, [sp, #12]
	.loc	1 20 19 is_stmt 0               ; dyld_inspector/AppDelegate.m:20:19
	mov	x1, x19
	mov	w2, #8
	bl	_write
Ltmp4:
	mov	x19, x0
Ltmp5:
	;DEBUG_VALUE: isReadable:ret <- $x19
	.loc	1 22 11 is_stmt 1               ; dyld_inspector/AppDelegate.m:22:11
	ldr	w0, [sp, #8]
	.loc	1 22 5 is_stmt 0                ; dyld_inspector/AppDelegate.m:22:5
	bl	_close
Ltmp6:
	.loc	1 23 11 is_stmt 1               ; dyld_inspector/AppDelegate.m:23:11
	ldr	w0, [sp, #12]
	.loc	1 23 5 is_stmt 0                ; dyld_inspector/AppDelegate.m:23:5
	bl	_close
Ltmp7:
	.loc	1 24 16 is_stmt 1               ; dyld_inspector/AppDelegate.m:24:16
	cmp	x19, #0                         ; =0
	cset	w0, gt
	.loc	1 24 5 is_stmt 0                ; dyld_inspector/AppDelegate.m:24:5
	ldp	x29, x30, [sp, #32]             ; 16-byte Folded Reload
	ldp	x20, x19, [sp, #16]             ; 16-byte Folded Reload
Ltmp8:
	add	sp, sp, #48                     ; =48
Ltmp9:
	retab
LBB0_2:
Ltmp10:
	;DEBUG_VALUE: isReadable:addr <- $x19
	;DEBUG_VALUE: isReadable:pfds <- [DW_OP_plus_uconst 8, DW_OP_deref] $sp
	.loc	1 17 9 is_stmt 1                ; dyld_inspector/AppDelegate.m:17:9
	bl	_isReadable.cold.1
Ltmp11:
Lfunc_end0:
	.cfi_endproc
	.file	3 "/Applications/Xcode-beta.app/Contents/Developer/Platforms/iPhoneOS.platform/Developer/SDKs/iPhoneOS15.0.sdk/usr/include" "unistd.h"
                                        ; -- End function
	.private_extern	_isWritable             ; -- Begin function isWritable
	.globl	_isWritable
	.p2align	2
_isWritable:                            ; @isWritable
Lfunc_begin1:
	.loc	1 27 0                          ; dyld_inspector/AppDelegate.m:27:0
	.cfi_startproc
; %bb.0:
	;DEBUG_VALUE: isWritable:addr <- $x0
	pacibsp
	sub	sp, sp, #48                     ; =48
	stp	x20, x19, [sp, #16]             ; 16-byte Folded Spill
	stp	x29, x30, [sp, #32]             ; 16-byte Folded Spill
	add	x29, sp, #32                    ; =32
	.cfi_def_cfa w29, 16
	.cfi_offset w30, -8
	.cfi_offset w29, -16
	.cfi_offset w19, -24
	.cfi_offset w20, -32
	mov	x19, x0
Ltmp12:
	;DEBUG_VALUE: isWritable:addr <- $x19
	.loc	1 30 10 prologue_end            ; dyld_inspector/AppDelegate.m:30:10
	bl	_isReadable
Ltmp13:
	.loc	1 30 9 is_stmt 0                ; dyld_inspector/AppDelegate.m:30:9
	cbz	w0, LBB1_4
Ltmp14:
; %bb.1:
	;DEBUG_VALUE: isWritable:addr <- $x19
	.loc	1 34 9 is_stmt 1                ; dyld_inspector/AppDelegate.m:34:9
	str	xzr, [sp, #8]
Ltmp15:
	.loc	1 35 9                          ; dyld_inspector/AppDelegate.m:35:9
	add	x0, sp, #8                      ; =8
	bl	_pipe
Ltmp16:
	.loc	1 35 9 is_stmt 0                ; dyld_inspector/AppDelegate.m:35:9
	cbnz	w0, LBB1_5
Ltmp17:
; %bb.2:
	;DEBUG_VALUE: isWritable:addr <- $x19
	.loc	1 39 13 is_stmt 1               ; dyld_inspector/AppDelegate.m:39:13
	ldr	w8, [x19]
Ltmp18:
	;DEBUG_VALUE: isWritable:v <- $w8
	.loc	1 39 9 is_stmt 0                ; dyld_inspector/AppDelegate.m:39:9
	str	w8, [sp, #4]
	.loc	1 40 25 is_stmt 1               ; dyld_inspector/AppDelegate.m:40:25
	ldr	w0, [sp, #12]
Ltmp19:
	;DEBUG_VALUE: isWritable:v <- [DW_OP_plus_uconst 4, DW_OP_deref] $sp
	.loc	1 40 19 is_stmt 0               ; dyld_inspector/AppDelegate.m:40:19
	add	x1, sp, #4                      ; =4
	mov	w2, #4
	bl	_write
Ltmp20:
	;DEBUG_VALUE: isWritable:ret <- $x0
	.loc	1 41 9 is_stmt 1                ; dyld_inspector/AppDelegate.m:41:9
	cmp	x0, #4                          ; =4
	b.ne	LBB1_6
Ltmp21:
; %bb.3:
	;DEBUG_VALUE: isWritable:addr <- $x19
	;DEBUG_VALUE: isWritable:ret <- $x0
	;DEBUG_VALUE: isWritable:v <- [DW_OP_plus_uconst 4, DW_OP_deref] $sp
	.loc	1 45 16                         ; dyld_inspector/AppDelegate.m:45:16
	ldr	w0, [sp, #8]
Ltmp22:
	.loc	1 45 11 is_stmt 0               ; dyld_inspector/AppDelegate.m:45:11
	mov	x1, x19
	mov	w2, #4
	bl	_read
Ltmp23:
	mov	x19, x0
Ltmp24:
	;DEBUG_VALUE: isWritable:addr <- [DW_OP_LLVM_entry_value 1] $x0
	;DEBUG_VALUE: isWritable:ret <- $x19
	.loc	1 47 11 is_stmt 1               ; dyld_inspector/AppDelegate.m:47:11
	ldr	w0, [sp, #8]
	.loc	1 47 5 is_stmt 0                ; dyld_inspector/AppDelegate.m:47:5
	bl	_close
Ltmp25:
	.loc	1 48 11 is_stmt 1               ; dyld_inspector/AppDelegate.m:48:11
	ldr	w0, [sp, #12]
	.loc	1 48 5 is_stmt 0                ; dyld_inspector/AppDelegate.m:48:5
	bl	_close
Ltmp26:
	.loc	1 49 16 is_stmt 1               ; dyld_inspector/AppDelegate.m:49:16
	cmp	x19, #0                         ; =0
	cset	w0, gt
Ltmp27:
LBB1_4:
	.loc	1 50 1                          ; dyld_inspector/AppDelegate.m:50:1
	ldp	x29, x30, [sp, #32]             ; 16-byte Folded Reload
	ldp	x20, x19, [sp, #16]             ; 16-byte Folded Reload
	add	sp, sp, #48                     ; =48
	retab
LBB1_5:
Ltmp28:
	;DEBUG_VALUE: isWritable:addr <- $x19
	.loc	1 36 9                          ; dyld_inspector/AppDelegate.m:36:9
	bl	_isWritable.cold.2
Ltmp29:
LBB1_6:
	;DEBUG_VALUE: isWritable:addr <- $x19
	;DEBUG_VALUE: isWritable:ret <- $x0
	;DEBUG_VALUE: isWritable:v <- [DW_OP_plus_uconst 4, DW_OP_deref] $sp
	.loc	1 42 9                          ; dyld_inspector/AppDelegate.m:42:9
	bl	_isWritable.cold.1
Ltmp30:
Lfunc_end1:
	.cfi_endproc
                                        ; -- End function
	.private_extern	_inspectSharedCache     ; -- Begin function inspectSharedCache
	.globl	_inspectSharedCache
	.p2align	2
_inspectSharedCache:                    ; @inspectSharedCache
Lfunc_begin2:
	.loc	1 52 0                          ; dyld_inspector/AppDelegate.m:52:0
	.cfi_startproc
; %bb.0:
	pacibsp
	sub	sp, sp, #128                    ; =128
	stp	x28, x27, [sp, #32]             ; 16-byte Folded Spill
	stp	x26, x25, [sp, #48]             ; 16-byte Folded Spill
	stp	x24, x23, [sp, #64]             ; 16-byte Folded Spill
	stp	x22, x21, [sp, #80]             ; 16-byte Folded Spill
	stp	x20, x19, [sp, #96]             ; 16-byte Folded Spill
	stp	x29, x30, [sp, #112]            ; 16-byte Folded Spill
	add	x29, sp, #112                   ; =112
	.cfi_def_cfa w29, 16
	.cfi_offset w30, -8
	.cfi_offset w29, -16
	.cfi_offset w19, -24
	.cfi_offset w20, -32
	.cfi_offset w21, -40
	.cfi_offset w22, -48
	.cfi_offset w23, -56
	.cfi_offset w24, -64
	.cfi_offset w25, -72
	.cfi_offset w26, -80
	.cfi_offset w27, -88
	.cfi_offset w28, -96
	mov	x26, #16384
	movk	x26, #32768, lsl #16
	movk	x26, #2, lsl #32
	mov	x22, #8589918208
	movk	x22, #32767, lsl #16
Ltmp31:
	;DEBUG_VALUE: inspectSharedCache:end <- 10737418240
	;DEBUG_VALUE: inspectSharedCache:start <- 6442450944
	sub	x19, x26, #8, lsl #12           ; =32768
Ltmp32:
LBB2_1:                                 ; =>This Inner Loop Header: Depth=1
	;DEBUG_VALUE: inspectSharedCache:end <- 10737418240
	;DEBUG_VALUE: inspectSharedCache:start <- [DW_OP_plus_uconst 16384, DW_OP_stack_value] $x22
	.loc	1 57 13 prologue_end            ; dyld_inspector/AppDelegate.m:57:13
	add	x22, x22, #4, lsl #12           ; =16384
Ltmp33:
	mov	x0, x22
	bl	_isReadable
Ltmp34:
	.loc	1 57 13 is_stmt 0               ; dyld_inspector/AppDelegate.m:57:13
	cbnz	w0, LBB2_4
Ltmp35:
; %bb.2:                                ;   in Loop: Header=BB2_1 Depth=1
	;DEBUG_VALUE: inspectSharedCache:end <- 10737418240
	;DEBUG_VALUE: inspectSharedCache:start <- [DW_OP_plus_uconst 32768, DW_OP_stack_value] $x22
	.loc	1 56 5 is_stmt 1                ; dyld_inspector/AppDelegate.m:56:5
	cmp	x22, x19
	b.lo	LBB2_1
Ltmp36:
; %bb.3:
	;DEBUG_VALUE: inspectSharedCache:start <- [DW_OP_plus_uconst 32768, DW_OP_stack_value] $x22
	;DEBUG_VALUE: inspectSharedCache:end <- 10737418240
	.loc	1 0 0 is_stmt 0                 ; dyld_inspector/AppDelegate.m:0:0
	sub	x22, x26, #4, lsl #12           ; =16384
Ltmp37:
LBB2_4:                                 ; =>This Inner Loop Header: Depth=1
	mov	x19, x26
Ltmp38:
	;DEBUG_VALUE: inspectSharedCache:end <- [DW_OP_constu 16384, DW_OP_minus, DW_OP_stack_value] $x19
	.loc	1 61 16 is_stmt 1               ; dyld_inspector/AppDelegate.m:61:16
	sub	x26, x26, #4, lsl #12           ; =16384
Ltmp39:
	.loc	1 61 5 is_stmt 0                ; dyld_inspector/AppDelegate.m:61:5
	cmp	x26, x22
	b.ls	LBB2_9
Ltmp40:
; %bb.5:                                ;   in Loop: Header=BB2_4 Depth=1
	;DEBUG_VALUE: inspectSharedCache:end <- [DW_OP_constu 16384, DW_OP_minus, DW_OP_stack_value] $x19
	.loc	1 62 13 is_stmt 1               ; dyld_inspector/AppDelegate.m:62:13
	sub	x0, x19, #8, lsl #12            ; =32768
	bl	_isReadable
Ltmp41:
	.loc	1 62 13 is_stmt 0               ; dyld_inspector/AppDelegate.m:62:13
	cbz	w0, LBB2_4
Ltmp42:
; %bb.6:
	;DEBUG_VALUE: inspectSharedCache:end <- [DW_OP_constu 16384, DW_OP_minus, DW_OP_stack_value] $x19
	.loc	1 0 13                          ; dyld_inspector/AppDelegate.m:0:13
	mov	x23, x22
Ltmp43:
LBB2_7:                                 ; =>This Inner Loop Header: Depth=1
	;DEBUG_VALUE: inspectSharedCache:end <- [DW_OP_constu 16384, DW_OP_minus, DW_OP_stack_value] $x19
	;DEBUG_VALUE: inspectSharedCache:writable_start <- $x23
	.loc	1 68 13 is_stmt 1               ; dyld_inspector/AppDelegate.m:68:13
	mov	x0, x23
	bl	_isWritable
Ltmp44:
	.loc	1 68 13 is_stmt 0               ; dyld_inspector/AppDelegate.m:68:13
	cbnz	w0, LBB2_10
Ltmp45:
; %bb.8:                                ;   in Loop: Header=BB2_7 Depth=1
	;DEBUG_VALUE: inspectSharedCache:writable_start <- $x23
	;DEBUG_VALUE: inspectSharedCache:end <- [DW_OP_constu 16384, DW_OP_minus, DW_OP_stack_value] $x19
	.loc	1 67 49 is_stmt 1               ; dyld_inspector/AppDelegate.m:67:49
	add	x23, x23, #4, lsl #12           ; =16384
Ltmp46:
	;DEBUG_VALUE: inspectSharedCache:writable_start <- $x23
	.loc	1 67 5 is_stmt 0                ; dyld_inspector/AppDelegate.m:67:5
	cmp	x23, x26
	b.lo	LBB2_7
	b	LBB2_10
Ltmp47:
LBB2_9:
	;DEBUG_VALUE: inspectSharedCache:end <- [DW_OP_constu 16384, DW_OP_minus, DW_OP_stack_value] $x19
	.loc	1 0 5                           ; dyld_inspector/AppDelegate.m:0:5
	mov	x23, x22
Ltmp48:
LBB2_10:
	;DEBUG_VALUE: inspectSharedCache:end <- [DW_OP_constu 16384, DW_OP_minus, DW_OP_stack_value] $x19
	.loc	1 72 30 is_stmt 1               ; dyld_inspector/AppDelegate.m:72:30
	adrp	x24, _OBJC_CLASSLIST_REFERENCES_$_@PAGE
	ldr	x0, [x24, _OBJC_CLASSLIST_REFERENCES_$_@PAGEOFF]
Lloh0:
	adrp	x8, _OBJC_SELECTOR_REFERENCES_@PAGE
Lloh1:
	ldr	x21, [x8, _OBJC_SELECTOR_REFERENCES_@PAGEOFF]
	mov	x1, x21
	bl	_objc_msgSend
Ltmp49:
	;DEBUG_VALUE: inspectSharedCache:zeroMap <- $x0
	.loc	1 0 30 is_stmt 0                ; dyld_inspector/AppDelegate.m:0:30
	; InlineAsm Start
	mov	x29, x29	; marker for objc_retainAutoreleaseReturnValue
	; InlineAsm End
	.loc	1 72 30                         ; dyld_inspector/AppDelegate.m:72:30
	bl	_objc_retainAutoreleasedReturnValue
Ltmp50:
	mov	x20, x0
	.loc	1 73 35 is_stmt 1               ; dyld_inspector/AppDelegate.m:73:35
	ldr	x0, [x24, _OBJC_CLASSLIST_REFERENCES_$_@PAGEOFF]
	mov	x1, x21
	bl	_objc_msgSend
Ltmp51:
	;DEBUG_VALUE: inspectSharedCache:taggetPtrMap <- $x0
	.loc	1 0 35 is_stmt 0                ; dyld_inspector/AppDelegate.m:0:35
	; InlineAsm Start
	mov	x29, x29	; marker for objc_retainAutoreleaseReturnValue
	; InlineAsm End
	.loc	1 73 35                         ; dyld_inspector/AppDelegate.m:73:35
	bl	_objc_retainAutoreleasedReturnValue
Ltmp52:
	.loc	1 0 35                          ; dyld_inspector/AppDelegate.m:0:35
	str	x0, [sp, #16]                   ; 8-byte Folded Spill
	.loc	1 74 33 is_stmt 1               ; dyld_inspector/AppDelegate.m:74:33
	ldr	x0, [x24, _OBJC_CLASSLIST_REFERENCES_$_@PAGEOFF]
	mov	x1, x21
	bl	_objc_msgSend
Ltmp53:
	;DEBUG_VALUE: inspectSharedCache:pointerMap <- $x0
	.loc	1 0 33 is_stmt 0                ; dyld_inspector/AppDelegate.m:0:33
	; InlineAsm Start
	mov	x29, x29	; marker for objc_retainAutoreleaseReturnValue
	; InlineAsm End
	.loc	1 74 33                         ; dyld_inspector/AppDelegate.m:74:33
	bl	_objc_retainAutoreleasedReturnValue
Ltmp54:
	mov	x21, x0
	.loc	1 76 5 is_stmt 1                ; dyld_inspector/AppDelegate.m:76:5
	stp	x22, x26, [sp]
Lloh2:
	adrp	x0, l_.str.2@PAGE
Lloh3:
	add	x0, x0, l_.str.2@PAGEOFF
	bl	_printf
Ltmp55:
	.loc	1 77 113                        ; dyld_inspector/AppDelegate.m:77:113
	sub	x8, x23, x22
	.loc	1 77 5 is_stmt 0                ; dyld_inspector/AppDelegate.m:77:5
	stp	x23, x8, [sp]
Lloh4:
	adrp	x0, l_.str.3@PAGE
Lloh5:
	add	x0, x0, l_.str.3@PAGEOFF
	bl	_printf
Ltmp56:
	;DEBUG_VALUE: inspectSharedCache:nullMapByte <- 0
	.loc	1 79 8 is_stmt 1                ; dyld_inspector/AppDelegate.m:79:8
	strh	wzr, [sp, #30]
Ltmp57:
	;DEBUG_VALUE: inspectSharedCache:taggedPtrByte <- 0
	;DEBUG_VALUE: inspectSharedCache:ptrByte <- 0
	.loc	1 81 8                          ; dyld_inspector/AppDelegate.m:81:8
	strb	wzr, [sp, #29]
Ltmp58:
	;DEBUG_VALUE: addr <- $x22
	.loc	1 82 5                          ; dyld_inspector/AppDelegate.m:82:5
	cmp	x26, x22
	b.ls	LBB2_24
Ltmp59:
; %bb.11:
	;DEBUG_VALUE: addr <- $x22
	;DEBUG_VALUE: inspectSharedCache:end <- [DW_OP_constu 16384, DW_OP_minus, DW_OP_stack_value] $x19
	;DEBUG_VALUE: inspectSharedCache:ptrByte <- 0
	;DEBUG_VALUE: inspectSharedCache:taggedPtrByte <- 0
	;DEBUG_VALUE: inspectSharedCache:nullMapByte <- 0
	.loc	1 0 5 is_stmt 0                 ; dyld_inspector/AppDelegate.m:0:5
	mov	x27, #0
Lloh6:
	adrp	x8, _OBJC_SELECTOR_REFERENCES_.5@PAGE
Lloh7:
	ldr	x23, [x8, _OBJC_SELECTOR_REFERENCES_.5@PAGEOFF]
	sub	x8, x19, x22
	sub	x8, x8, #4, lsl #12             ; =16384
	lsr	x28, x8, #20
	.loc	1 82 5                          ; dyld_inspector/AppDelegate.m:82:5
	lsr	x24, x22, #3
	mov	w19, #1
Ltmp60:
LBB2_12:                                ; =>This Inner Loop Header: Depth=1
	;DEBUG_VALUE: addr <- undef
	;DEBUG_VALUE: val <- 1
	.loc	1 85 13 is_stmt 1               ; dyld_inspector/AppDelegate.m:85:13
	add	x25, x22, x27
	mov	x0, x25
	bl	_isReadable
Ltmp61:
	.loc	1 85 13 is_stmt 0               ; dyld_inspector/AppDelegate.m:85:13
	cbz	w0, LBB2_19
Ltmp62:
; %bb.13:                               ;   in Loop: Header=BB2_12 Depth=1
	;DEBUG_VALUE: val <- 1
	.loc	1 86 19 is_stmt 1               ; dyld_inspector/AppDelegate.m:86:19
	ldr	x8, [x25]
Ltmp63:
	;DEBUG_VALUE: val <- $x8
	.loc	1 89 13                         ; dyld_inspector/AppDelegate.m:89:13
	cbz	x8, LBB2_18
Ltmp64:
; %bb.14:                               ;   in Loop: Header=BB2_12 Depth=1
	;DEBUG_VALUE: val <- $x8
	.loc	1 95 13                         ; dyld_inspector/AppDelegate.m:95:13
	tbz	x8, #63, LBB2_16
Ltmp65:
; %bb.15:                               ;   in Loop: Header=BB2_12 Depth=1
	;DEBUG_VALUE: val <- $x8
	.loc	1 96 24                         ; dyld_inspector/AppDelegate.m:96:24
	mvn	w9, w24
	and	w9, w9, #0x7
Ltmp66:
	;DEBUG_VALUE: shift <- [DW_OP_constu 3, DW_OP_shr, DW_OP_LLVM_convert 64 7, DW_OP_LLVM_convert 32 7, DW_OP_constu 7, DW_OP_and, DW_OP_constu 7, DW_OP_xor, DW_OP_stack_value] undef
	.loc	1 97 33                         ; dyld_inspector/AppDelegate.m:97:33
	lsl	w9, w19, w9
	.loc	1 97 27 is_stmt 0               ; dyld_inspector/AppDelegate.m:97:27
	ldrb	w10, [sp, #30]
Ltmp67:
	;DEBUG_VALUE: inspectSharedCache:taggedPtrByte <- $w10
	orr	w9, w10, w9
Ltmp68:
	;DEBUG_VALUE: inspectSharedCache:taggedPtrByte <- $w9
	strb	w9, [sp, #30]
Ltmp69:
LBB2_16:                                ;   in Loop: Header=BB2_12 Depth=1
	;DEBUG_VALUE: val <- $x8
	.loc	1 100 26 is_stmt 1              ; dyld_inspector/AppDelegate.m:100:26
	cmp	x8, x22
	ccmp	x8, x26, #2, hs
	b.hs	LBB2_19
Ltmp70:
; %bb.17:                               ;   in Loop: Header=BB2_12 Depth=1
	;DEBUG_VALUE: val <- $x8
	.loc	1 101 24                        ; dyld_inspector/AppDelegate.m:101:24
	mvn	w8, w24
Ltmp71:
	and	w8, w8, #0x7
Ltmp72:
	;DEBUG_VALUE: shift <- [DW_OP_constu 3, DW_OP_shr, DW_OP_LLVM_convert 64 7, DW_OP_LLVM_convert 32 7, DW_OP_constu 7, DW_OP_and, DW_OP_constu 7, DW_OP_xor, DW_OP_stack_value] undef
	.loc	1 102 27                        ; dyld_inspector/AppDelegate.m:102:27
	lsl	w8, w19, w8
	.loc	1 102 21 is_stmt 0              ; dyld_inspector/AppDelegate.m:102:21
	ldrb	w9, [sp, #29]
Ltmp73:
	;DEBUG_VALUE: inspectSharedCache:ptrByte <- $w9
	orr	w8, w9, w8
Ltmp74:
	;DEBUG_VALUE: inspectSharedCache:ptrByte <- $w8
	strb	w8, [sp, #29]
	b	LBB2_19
Ltmp75:
LBB2_18:                                ;   in Loop: Header=BB2_12 Depth=1
	;DEBUG_VALUE: val <- $x8
	.loc	1 90 24 is_stmt 1               ; dyld_inspector/AppDelegate.m:90:24
	mvn	w8, w24
Ltmp76:
	and	w8, w8, #0x7
Ltmp77:
	;DEBUG_VALUE: shift <- [DW_OP_constu 3, DW_OP_shr, DW_OP_LLVM_convert 64 7, DW_OP_LLVM_convert 32 7, DW_OP_constu 7, DW_OP_and, DW_OP_constu 7, DW_OP_xor, DW_OP_stack_value] undef
	.loc	1 91 31                         ; dyld_inspector/AppDelegate.m:91:31
	lsl	w8, w19, w8
	.loc	1 91 25 is_stmt 0               ; dyld_inspector/AppDelegate.m:91:25
	ldrb	w9, [sp, #31]
Ltmp78:
	;DEBUG_VALUE: inspectSharedCache:nullMapByte <- $w9
	orr	w8, w9, w8
Ltmp79:
	;DEBUG_VALUE: inspectSharedCache:nullMapByte <- $w8
	strb	w8, [sp, #31]
Ltmp80:
LBB2_19:                                ;   in Loop: Header=BB2_12 Depth=1
	.loc	1 105 18 is_stmt 1              ; dyld_inspector/AppDelegate.m:105:18
	mvn	w8, w25
	tst	x8, #0x38
Ltmp81:
	.loc	1 105 13 is_stmt 0              ; dyld_inspector/AppDelegate.m:105:13
	b.ne	LBB2_21
; %bb.20:                               ;   in Loop: Header=BB2_12 Depth=1
Ltmp82:
	;DEBUG_VALUE: inspectSharedCache:nullMapByte <- [DW_OP_plus_uconst 31, DW_OP_deref] $sp
	.loc	1 106 13 is_stmt 1              ; dyld_inspector/AppDelegate.m:106:13
	add	x2, sp, #31                     ; =31
	mov	x0, x20
	mov	x1, x23
	mov	w3, #1
	bl	_objc_msgSend
Ltmp83:
	;DEBUG_VALUE: inspectSharedCache:nullMapByte <- 0
	.loc	1 107 25                        ; dyld_inspector/AppDelegate.m:107:25
	strb	wzr, [sp, #31]
Ltmp84:
	;DEBUG_VALUE: inspectSharedCache:taggedPtrByte <- [DW_OP_plus_uconst 30, DW_OP_deref] $sp
	.loc	1 108 13                        ; dyld_inspector/AppDelegate.m:108:13
	add	x2, sp, #30                     ; =30
	ldr	x0, [sp, #16]                   ; 8-byte Folded Reload
	mov	x1, x23
	mov	w3, #1
	bl	_objc_msgSend
Ltmp85:
	;DEBUG_VALUE: inspectSharedCache:taggedPtrByte <- 0
	.loc	1 109 27                        ; dyld_inspector/AppDelegate.m:109:27
	strb	wzr, [sp, #30]
Ltmp86:
	;DEBUG_VALUE: inspectSharedCache:ptrByte <- [DW_OP_plus_uconst 29, DW_OP_deref] $sp
	.loc	1 110 13                        ; dyld_inspector/AppDelegate.m:110:13
	add	x2, sp, #29                     ; =29
	mov	x0, x21
	mov	x1, x23
	mov	w3, #1
	bl	_objc_msgSend
Ltmp87:
	;DEBUG_VALUE: inspectSharedCache:ptrByte <- 0
	.loc	1 111 21                        ; dyld_inspector/AppDelegate.m:111:21
	strb	wzr, [sp, #29]
Ltmp88:
LBB2_21:                                ;   in Loop: Header=BB2_12 Depth=1
	.loc	1 114 28                        ; dyld_inspector/AppDelegate.m:114:28
	tst	x27, #0xffff8
Ltmp89:
	.loc	1 114 13 is_stmt 0              ; dyld_inspector/AppDelegate.m:114:13
	b.ne	LBB2_23
; %bb.22:                               ;   in Loop: Header=BB2_12 Depth=1
Ltmp90:
	.loc	1 115 48 is_stmt 1              ; dyld_inspector/AppDelegate.m:115:48
	lsr	x8, x27, #20
	.loc	1 115 13 is_stmt 0              ; dyld_inspector/AppDelegate.m:115:13
	stp	x8, x28, [sp]
Lloh8:
	adrp	x0, l_.str.6@PAGE
Lloh9:
	add	x0, x0, l_.str.6@PAGEOFF
	bl	_printf
Ltmp91:
LBB2_23:                                ;   in Loop: Header=BB2_12 Depth=1
	;DEBUG_VALUE: addr <- [DW_OP_plus_uconst 8, DW_OP_stack_value] undef
	.loc	1 82 33 is_stmt 1               ; dyld_inspector/AppDelegate.m:82:33
	add	x24, x24, #1                    ; =1
	add	x27, x27, #8                    ; =8
	add	x8, x22, x27
Ltmp92:
	.loc	1 82 5 is_stmt 0                ; dyld_inspector/AppDelegate.m:82:5
	cmp	x8, x26
	b.lo	LBB2_12
Ltmp93:
LBB2_24:
	.loc	1 119 22 is_stmt 1              ; dyld_inspector/AppDelegate.m:119:22
	mov	w0, #9
	mov	w1, #1
	mov	w2, #1
	bl	_NSSearchPathForDirectoriesInDomains
Ltmp94:
	;DEBUG_VALUE: inspectSharedCache:paths <- $x0
	.loc	1 0 22 is_stmt 0                ; dyld_inspector/AppDelegate.m:0:22
	; InlineAsm Start
	mov	x29, x29	; marker for objc_retainAutoreleaseReturnValue
	; InlineAsm End
	.loc	1 119 14                        ; dyld_inspector/AppDelegate.m:119:14
	bl	_objc_retainAutoreleasedReturnValue
Ltmp95:
	mov	x22, x0
	.loc	1 120 36 is_stmt 1              ; dyld_inspector/AppDelegate.m:120:36
Lloh10:
	adrp	x8, _OBJC_SELECTOR_REFERENCES_.8@PAGE
Lloh11:
	ldr	x1, [x8, _OBJC_SELECTOR_REFERENCES_.8@PAGEOFF]
	mov	x2, #0
	bl	_objc_msgSend
Ltmp96:
	;DEBUG_VALUE: inspectSharedCache:documentsDirectory <- $x0
	.loc	1 0 36 is_stmt 0                ; dyld_inspector/AppDelegate.m:0:36
	; InlineAsm Start
	mov	x29, x29	; marker for objc_retainAutoreleaseReturnValue
	; InlineAsm End
	.loc	1 120 15                        ; dyld_inspector/AppDelegate.m:120:15
	bl	_objc_retainAutoreleasedReturnValue
Ltmp97:
	mov	x23, x0
	.loc	1 121 25 is_stmt 1              ; dyld_inspector/AppDelegate.m:121:25
Lloh12:
	adrp	x8, _OBJC_SELECTOR_REFERENCES_.11@PAGE
Lloh13:
	ldr	x24, [x8, _OBJC_SELECTOR_REFERENCES_.11@PAGEOFF]
Lloh14:
	adrp	x2, l__unnamed_cfstring_@PAGE
Lloh15:
	add	x2, x2, l__unnamed_cfstring_@PAGEOFF
	mov	x1, x24
	bl	_objc_msgSend
Ltmp98:
	;DEBUG_VALUE: inspectSharedCache:appFile <- $x0
	.loc	1 0 25 is_stmt 0                ; dyld_inspector/AppDelegate.m:0:25
	; InlineAsm Start
	mov	x29, x29	; marker for objc_retainAutoreleaseReturnValue
	; InlineAsm End
	.loc	1 121 15                        ; dyld_inspector/AppDelegate.m:121:15
	bl	_objc_retainAutoreleasedReturnValue
Ltmp99:
	mov	x25, x0
	.loc	1 122 5 is_stmt 1               ; dyld_inspector/AppDelegate.m:122:5
Lloh16:
	adrp	x8, _OBJC_SELECTOR_REFERENCES_.13@PAGE
Lloh17:
	ldr	x26, [x8, _OBJC_SELECTOR_REFERENCES_.13@PAGEOFF]
	mov	x0, x20
	mov	x1, x26
	mov	x2, x25
	mov	w3, #1
	bl	_objc_msgSend
Ltmp100:
	.loc	1 123 15                        ; dyld_inspector/AppDelegate.m:123:15
Lloh18:
	adrp	x2, l__unnamed_cfstring_.16@PAGE
Lloh19:
	add	x2, x2, l__unnamed_cfstring_.16@PAGEOFF
	mov	x0, x23
	mov	x1, x24
	bl	_objc_msgSend
Ltmp101:
	;DEBUG_VALUE: inspectSharedCache:appFile <- $x0
	.loc	1 0 15 is_stmt 0                ; dyld_inspector/AppDelegate.m:0:15
	; InlineAsm Start
	mov	x29, x29	; marker for objc_retainAutoreleaseReturnValue
	; InlineAsm End
	.loc	1 123 13                        ; dyld_inspector/AppDelegate.m:123:13
	bl	_objc_retainAutoreleasedReturnValue
Ltmp102:
	mov	x27, x0
	mov	x0, x25
	bl	_objc_release
Ltmp103:
	.loc	1 0 13                          ; dyld_inspector/AppDelegate.m:0:13
	ldr	x19, [sp, #16]                  ; 8-byte Folded Reload
	.loc	1 124 5 is_stmt 1               ; dyld_inspector/AppDelegate.m:124:5
	mov	x0, x19
	mov	x1, x26
	mov	x2, x27
	mov	w3, #1
	bl	_objc_msgSend
Ltmp104:
	.loc	1 125 15                        ; dyld_inspector/AppDelegate.m:125:15
Lloh20:
	adrp	x2, l__unnamed_cfstring_.19@PAGE
Lloh21:
	add	x2, x2, l__unnamed_cfstring_.19@PAGEOFF
	mov	x0, x23
	mov	x1, x24
	bl	_objc_msgSend
Ltmp105:
	;DEBUG_VALUE: inspectSharedCache:appFile <- $x0
	.loc	1 0 15 is_stmt 0                ; dyld_inspector/AppDelegate.m:0:15
	; InlineAsm Start
	mov	x29, x29	; marker for objc_retainAutoreleaseReturnValue
	; InlineAsm End
	.loc	1 125 13                        ; dyld_inspector/AppDelegate.m:125:13
	bl	_objc_retainAutoreleasedReturnValue
Ltmp106:
	mov	x24, x0
	mov	x0, x27
	bl	_objc_release
Ltmp107:
	.loc	1 126 5 is_stmt 1               ; dyld_inspector/AppDelegate.m:126:5
	mov	x0, x21
	mov	x1, x26
	mov	x2, x24
	mov	w3, #1
	bl	_objc_msgSend
Ltmp108:
	.loc	1 127 5                         ; dyld_inspector/AppDelegate.m:127:5
Lloh22:
	adrp	x0, l_.str.20@PAGE
Lloh23:
	add	x0, x0, l_.str.20@PAGEOFF
	bl	_puts
Ltmp109:
	.loc	1 128 1                         ; dyld_inspector/AppDelegate.m:128:1
	mov	x0, x24
	bl	_objc_release
Ltmp110:
	mov	x0, x23
	bl	_objc_release
Ltmp111:
	mov	x0, x22
	bl	_objc_release
Ltmp112:
	mov	x0, x21
	bl	_objc_release
Ltmp113:
	mov	x0, x19
	bl	_objc_release
Ltmp114:
	mov	x0, x20
	bl	_objc_release
Ltmp115:
	ldp	x29, x30, [sp, #112]            ; 16-byte Folded Reload
	ldp	x20, x19, [sp, #96]             ; 16-byte Folded Reload
	ldp	x22, x21, [sp, #80]             ; 16-byte Folded Reload
	ldp	x24, x23, [sp, #64]             ; 16-byte Folded Reload
	ldp	x26, x25, [sp, #48]             ; 16-byte Folded Reload
	ldp	x28, x27, [sp, #32]             ; 16-byte Folded Reload
	add	sp, sp, #128                    ; =128
	retab
Ltmp116:
	.loh AdrpAdd	Lloh4, Lloh5
	.loh AdrpAdd	Lloh2, Lloh3
	.loh AdrpLdr	Lloh0, Lloh1
	.loh AdrpLdr	Lloh6, Lloh7
	.loh AdrpAdd	Lloh8, Lloh9
	.loh AdrpAdd	Lloh22, Lloh23
	.loh AdrpAdd	Lloh20, Lloh21
	.loh AdrpAdd	Lloh18, Lloh19
	.loh AdrpLdr	Lloh16, Lloh17
	.loh AdrpAdd	Lloh14, Lloh15
	.loh AdrpLdr	Lloh12, Lloh13
	.loh AdrpLdr	Lloh10, Lloh11
Lfunc_end2:
	.cfi_endproc
	.file	4 "/Applications/Xcode-beta.app/Contents/Developer/Platforms/iPhoneOS.platform/Developer/SDKs/iPhoneOS15.0.sdk/System/Library/Frameworks/Foundation.framework/Headers" "NSPathUtilities.h"
	.file	5 "/Applications/Xcode-beta.app/Contents/Developer/Platforms/iPhoneOS.platform/Developer/SDKs/iPhoneOS15.0.sdk/usr/include" "stdio.h"
                                        ; -- End function
	.p2align	2                               ; -- Begin function -[AppDelegate application:didFinishLaunchingWithOptions:]
"-[AppDelegate application:didFinishLaunchingWithOptions:]": ; @"\01-[AppDelegate application:didFinishLaunchingWithOptions:]"
Lfunc_begin3:
	.loc	1 130 0                         ; dyld_inspector/AppDelegate.m:130:0
	.cfi_startproc
; %bb.0:
	;DEBUG_VALUE: -[AppDelegate application:didFinishLaunchingWithOptions:]:self <- $x0
	;DEBUG_VALUE: -[AppDelegate application:didFinishLaunchingWithOptions:]:_cmd <- $x1
	;DEBUG_VALUE: -[AppDelegate application:didFinishLaunchingWithOptions:]:application <- $x2
	;DEBUG_VALUE: -[AppDelegate application:didFinishLaunchingWithOptions:]:launchOptions <- $x3
	pacibsp
	stp	x29, x30, [sp, #-16]!           ; 16-byte Folded Spill
	mov	x29, sp
	.cfi_def_cfa w29, 16
	.cfi_offset w30, -8
	.cfi_offset w29, -16
Ltmp117:
	.loc	1 133 5 prologue_end            ; dyld_inspector/AppDelegate.m:133:5
	bl	_inspectSharedCache
Ltmp118:
	;DEBUG_VALUE: -[AppDelegate application:didFinishLaunchingWithOptions:]:launchOptions <- [DW_OP_LLVM_entry_value 1] $x3
	;DEBUG_VALUE: -[AppDelegate application:didFinishLaunchingWithOptions:]:application <- [DW_OP_LLVM_entry_value 1] $x2
	;DEBUG_VALUE: -[AppDelegate application:didFinishLaunchingWithOptions:]:_cmd <- [DW_OP_LLVM_entry_value 1] $x1
	;DEBUG_VALUE: -[AppDelegate application:didFinishLaunchingWithOptions:]:self <- [DW_OP_LLVM_entry_value 1] $x0
	.loc	1 136 1                         ; dyld_inspector/AppDelegate.m:136:1
	mov	w0, #1
	ldp	x29, x30, [sp], #16             ; 16-byte Folded Reload
	retab
Ltmp119:
Lfunc_end3:
	.cfi_endproc
                                        ; -- End function
	.p2align	2                               ; -- Begin function -[AppDelegate applicationWillResignActive:]
"-[AppDelegate applicationWillResignActive:]": ; @"\01-[AppDelegate applicationWillResignActive:]"
Lfunc_begin4:
	.loc	1 139 0                         ; dyld_inspector/AppDelegate.m:139:0
	.cfi_startproc
; %bb.0:
	;DEBUG_VALUE: -[AppDelegate applicationWillResignActive:]:self <- $x0
	;DEBUG_VALUE: -[AppDelegate applicationWillResignActive:]:_cmd <- $x1
	;DEBUG_VALUE: -[AppDelegate applicationWillResignActive:]:application <- $x2
	.loc	1 142 1 prologue_end            ; dyld_inspector/AppDelegate.m:142:1
	ret
Ltmp120:
Lfunc_end4:
	.cfi_endproc
                                        ; -- End function
	.p2align	2                               ; -- Begin function -[AppDelegate applicationDidEnterBackground:]
"-[AppDelegate applicationDidEnterBackground:]": ; @"\01-[AppDelegate applicationDidEnterBackground:]"
Lfunc_begin5:
	.loc	1 145 0                         ; dyld_inspector/AppDelegate.m:145:0
	.cfi_startproc
; %bb.0:
	;DEBUG_VALUE: -[AppDelegate applicationDidEnterBackground:]:self <- $x0
	;DEBUG_VALUE: -[AppDelegate applicationDidEnterBackground:]:_cmd <- $x1
	;DEBUG_VALUE: -[AppDelegate applicationDidEnterBackground:]:application <- $x2
	.loc	1 148 1 prologue_end            ; dyld_inspector/AppDelegate.m:148:1
	ret
Ltmp121:
Lfunc_end5:
	.cfi_endproc
                                        ; -- End function
	.p2align	2                               ; -- Begin function -[AppDelegate applicationWillEnterForeground:]
"-[AppDelegate applicationWillEnterForeground:]": ; @"\01-[AppDelegate applicationWillEnterForeground:]"
Lfunc_begin6:
	.loc	1 151 0                         ; dyld_inspector/AppDelegate.m:151:0
	.cfi_startproc
; %bb.0:
	;DEBUG_VALUE: -[AppDelegate applicationWillEnterForeground:]:self <- $x0
	;DEBUG_VALUE: -[AppDelegate applicationWillEnterForeground:]:_cmd <- $x1
	;DEBUG_VALUE: -[AppDelegate applicationWillEnterForeground:]:application <- $x2
	.loc	1 153 1 prologue_end            ; dyld_inspector/AppDelegate.m:153:1
	ret
Ltmp122:
Lfunc_end6:
	.cfi_endproc
                                        ; -- End function
	.p2align	2                               ; -- Begin function -[AppDelegate applicationDidBecomeActive:]
"-[AppDelegate applicationDidBecomeActive:]": ; @"\01-[AppDelegate applicationDidBecomeActive:]"
Lfunc_begin7:
	.loc	1 156 0                         ; dyld_inspector/AppDelegate.m:156:0
	.cfi_startproc
; %bb.0:
	;DEBUG_VALUE: -[AppDelegate applicationDidBecomeActive:]:self <- $x0
	;DEBUG_VALUE: -[AppDelegate applicationDidBecomeActive:]:_cmd <- $x1
	;DEBUG_VALUE: -[AppDelegate applicationDidBecomeActive:]:application <- $x2
	.loc	1 158 1 prologue_end            ; dyld_inspector/AppDelegate.m:158:1
	ret
Ltmp123:
Lfunc_end7:
	.cfi_endproc
                                        ; -- End function
	.p2align	2                               ; -- Begin function -[AppDelegate applicationWillTerminate:]
"-[AppDelegate applicationWillTerminate:]": ; @"\01-[AppDelegate applicationWillTerminate:]"
Lfunc_begin8:
	.loc	1 161 0                         ; dyld_inspector/AppDelegate.m:161:0
	.cfi_startproc
; %bb.0:
	;DEBUG_VALUE: -[AppDelegate applicationWillTerminate:]:self <- $x0
	;DEBUG_VALUE: -[AppDelegate applicationWillTerminate:]:_cmd <- $x1
	;DEBUG_VALUE: -[AppDelegate applicationWillTerminate:]:application <- $x2
	.loc	1 163 1 prologue_end            ; dyld_inspector/AppDelegate.m:163:1
	ret
Ltmp124:
Lfunc_end8:
	.cfi_endproc
                                        ; -- End function
	.p2align	2                               ; -- Begin function -[AppDelegate window]
"-[AppDelegate window]":                ; @"\01-[AppDelegate window]"
Lfunc_begin9:
	.loc	2 5 0                           ; dyld_inspector/AppDelegate.h:5:0
	.cfi_startproc
; %bb.0:
	;DEBUG_VALUE: -[AppDelegate window]:self <- $x0
	;DEBUG_VALUE: -[AppDelegate window]:self <- $x0
	;DEBUG_VALUE: -[AppDelegate window]:_cmd <- $x1
	.loc	2 5 41 prologue_end             ; dyld_inspector/AppDelegate.h:5:41
Lloh24:
	adrp	x8, _OBJC_IVAR_$_AppDelegate._window@PAGE
Lloh25:
	ldrsw	x8, [x8, _OBJC_IVAR_$_AppDelegate._window@PAGEOFF]
	ldr	x0, [x0, x8]
Ltmp125:
	;DEBUG_VALUE: -[AppDelegate window]:self <- [DW_OP_LLVM_entry_value 1] $x0
	ret
Ltmp126:
	.loh AdrpLdr	Lloh24, Lloh25
Lfunc_end9:
	.cfi_endproc
                                        ; -- End function
	.p2align	2                               ; -- Begin function -[AppDelegate setWindow:]
"-[AppDelegate setWindow:]":            ; @"\01-[AppDelegate setWindow:]"
Lfunc_begin10:
	.loc	2 5 0                           ; dyld_inspector/AppDelegate.h:5:0
	.cfi_startproc
; %bb.0:
	;DEBUG_VALUE: -[AppDelegate setWindow:]:self <- $x0
	;DEBUG_VALUE: -[AppDelegate setWindow:]:_cmd <- $x1
	;DEBUG_VALUE: -[AppDelegate setWindow:]:window <- $x2
	mov	x1, x2
Ltmp127:
	;DEBUG_VALUE: -[AppDelegate setWindow:]:_cmd <- [DW_OP_LLVM_entry_value 1] $x1
	;DEBUG_VALUE: -[AppDelegate setWindow:]:window <- $x1
	;DEBUG_VALUE: -[AppDelegate setWindow:]:self <- $x0
	.loc	2 0 0 prologue_end              ; dyld_inspector/AppDelegate.h:0:0
Lloh26:
	adrp	x8, _OBJC_IVAR_$_AppDelegate._window@PAGE
Lloh27:
	ldrsw	x8, [x8, _OBJC_IVAR_$_AppDelegate._window@PAGEOFF]
	add	x0, x0, x8
Ltmp128:
	;DEBUG_VALUE: -[AppDelegate setWindow:]:self <- [DW_OP_LLVM_entry_value 1] $x0
	;DEBUG_VALUE: -[AppDelegate setWindow:]:window <- $x1
	b	_objc_storeStrong
Ltmp129:
	.loh AdrpLdr	Lloh26, Lloh27
Lfunc_end10:
	.cfi_endproc
                                        ; -- End function
	.p2align	2                               ; -- Begin function -[AppDelegate .cxx_destruct]
"-[AppDelegate .cxx_destruct]":         ; @"\01-[AppDelegate .cxx_destruct]"
Lfunc_begin11:
	.loc	1 12 0                          ; dyld_inspector/AppDelegate.m:12:0
	.cfi_startproc
; %bb.0:
	;DEBUG_VALUE: -[AppDelegate .cxx_destruct]:self <- $x0
	;DEBUG_VALUE: -[AppDelegate .cxx_destruct]:self <- $x0
	;DEBUG_VALUE: -[AppDelegate .cxx_destruct]:_cmd <- $x1
	.loc	1 12 17 prologue_end            ; dyld_inspector/AppDelegate.m:12:17
Lloh28:
	adrp	x8, _OBJC_IVAR_$_AppDelegate._window@PAGE
Lloh29:
	ldrsw	x8, [x8, _OBJC_IVAR_$_AppDelegate._window@PAGEOFF]
	add	x0, x0, x8
Ltmp130:
	;DEBUG_VALUE: -[AppDelegate .cxx_destruct]:self <- [DW_OP_LLVM_entry_value 1] $x0
	mov	x1, #0
Ltmp131:
	;DEBUG_VALUE: -[AppDelegate .cxx_destruct]:_cmd <- [DW_OP_LLVM_entry_value 1] $x1
	b	_objc_storeStrong
Ltmp132:
	.loh AdrpLdr	Lloh28, Lloh29
Lfunc_end11:
	.cfi_endproc
                                        ; -- End function
	.p2align	2                               ; -- Begin function isReadable.cold.1
_isReadable.cold.1:                     ; @isReadable.cold.1
Lfunc_begin12:
	.loc	1 0 0                           ; dyld_inspector/AppDelegate.m:0:0
	.cfi_startproc
; %bb.0:
	pacibsp
	stp	x29, x30, [sp, #-16]!           ; 16-byte Folded Spill
	mov	x29, sp
	.cfi_def_cfa w29, 16
	.cfi_offset w30, -8
	.cfi_offset w29, -16
Ltmp133:
	.loc	1 17 9 prologue_end             ; dyld_inspector/AppDelegate.m:17:9
Lloh30:
	adrp	x0, l_.str@PAGE
Lloh31:
	add	x0, x0, l_.str@PAGEOFF
	bl	_perror
	bl	_OUTLINED_FUNCTION_0
Ltmp134:
	.loh AdrpAdd	Lloh30, Lloh31
Lfunc_end12:
	.cfi_endproc
                                        ; -- End function
	.p2align	2                               ; -- Begin function isWritable.cold.1
_isWritable.cold.1:                     ; @isWritable.cold.1
Lfunc_begin13:
	.loc	1 0 0                           ; dyld_inspector/AppDelegate.m:0:0
	.cfi_startproc
; %bb.0:
	pacibsp
	stp	x29, x30, [sp, #-16]!           ; 16-byte Folded Spill
	mov	x29, sp
	.cfi_def_cfa w29, 16
	.cfi_offset w30, -8
	.cfi_offset w29, -16
Ltmp135:
	.loc	1 42 9 prologue_end             ; dyld_inspector/AppDelegate.m:42:9
Lloh32:
	adrp	x0, l_.str.1@PAGE
Lloh33:
	add	x0, x0, l_.str.1@PAGEOFF
	bl	_perror
	bl	_OUTLINED_FUNCTION_0
Ltmp136:
	.loh AdrpAdd	Lloh32, Lloh33
Lfunc_end13:
	.cfi_endproc
                                        ; -- End function
	.p2align	2                               ; -- Begin function isWritable.cold.2
_isWritable.cold.2:                     ; @isWritable.cold.2
Lfunc_begin14:
	.loc	1 0 0                           ; dyld_inspector/AppDelegate.m:0:0
	.cfi_startproc
; %bb.0:
	pacibsp
	stp	x29, x30, [sp, #-16]!           ; 16-byte Folded Spill
	mov	x29, sp
	.cfi_def_cfa w29, 16
	.cfi_offset w30, -8
	.cfi_offset w29, -16
Ltmp137:
	.loc	1 36 9 prologue_end             ; dyld_inspector/AppDelegate.m:36:9
Lloh34:
	adrp	x0, l_.str@PAGE
Lloh35:
	add	x0, x0, l_.str@PAGEOFF
	bl	_perror
	bl	_OUTLINED_FUNCTION_0
Ltmp138:
	.loh AdrpAdd	Lloh34, Lloh35
Lfunc_end14:
	.cfi_endproc
                                        ; -- End function
	.p2align	2                               ; -- Begin function OUTLINED_FUNCTION_0
_OUTLINED_FUNCTION_0:                   ; @OUTLINED_FUNCTION_0 Thunk
Lfunc_begin15:
	.cfi_startproc
; %bb.0:
	mov	w0, #-1
	eor	x16, x30, x30, lsl #1
	tbz	x16, #62, Ltmp139
	brk	#0xc471
Ltmp139:
	b	_exit
Lfunc_end15:
	.cfi_endproc
                                        ; -- End function
	.section	__TEXT,__cstring,cstring_literals
l_.str:                                 ; @.str
	.asciz	"pipe"

l_.str.1:                               ; @.str.1
	.asciz	"write"

	.section	__DATA,__objc_classrefs,regular,no_dead_strip
	.p2align	3                               ; @"OBJC_CLASSLIST_REFERENCES_$_"
_OBJC_CLASSLIST_REFERENCES_$_:
	.quad	_OBJC_CLASS_$_NSMutableData

	.section	__TEXT,__objc_methname,cstring_literals
l_OBJC_METH_VAR_NAME_:                  ; @OBJC_METH_VAR_NAME_
	.asciz	"data"

	.section	__DATA,__objc_selrefs,literal_pointers,no_dead_strip
	.p2align	3                               ; @OBJC_SELECTOR_REFERENCES_
_OBJC_SELECTOR_REFERENCES_:
	.quad	l_OBJC_METH_VAR_NAME_

	.section	__TEXT,__cstring,cstring_literals
l_.str.2:                               ; @.str.2
	.asciz	"[+] shared cache is mapped between 0x%lx and 0x%lx\n"

l_.str.3:                               ; @.str.3
	.asciz	"[+] writable region starts at 0x%lx, 0x%lx bytes from the start\n"

	.section	__TEXT,__objc_methname,cstring_literals
l_OBJC_METH_VAR_NAME_.4:                ; @OBJC_METH_VAR_NAME_.4
	.asciz	"appendBytes:length:"

	.section	__DATA,__objc_selrefs,literal_pointers,no_dead_strip
	.p2align	3                               ; @OBJC_SELECTOR_REFERENCES_.5
_OBJC_SELECTOR_REFERENCES_.5:
	.quad	l_OBJC_METH_VAR_NAME_.4

	.section	__TEXT,__cstring,cstring_literals
l_.str.6:                               ; @.str.6
	.asciz	"%lu/%lu\n"

	.section	__TEXT,__objc_methname,cstring_literals
l_OBJC_METH_VAR_NAME_.7:                ; @OBJC_METH_VAR_NAME_.7
	.asciz	"objectAtIndex:"

	.section	__DATA,__objc_selrefs,literal_pointers,no_dead_strip
	.p2align	3                               ; @OBJC_SELECTOR_REFERENCES_.8
_OBJC_SELECTOR_REFERENCES_.8:
	.quad	l_OBJC_METH_VAR_NAME_.7

	.section	__TEXT,__cstring,cstring_literals
l_.str.9:                               ; @.str.9
	.asciz	"shared_cache_nullmap.bin"

	.section	__DATA,__cfstring
	.p2align	3                               ; @_unnamed_cfstring_
l__unnamed_cfstring_:
	.quad	___CFConstantStringClassReference@AUTH(da,27361,addr)
	.long	1992                            ; 0x7c8
	.space	4
	.quad	l_.str.9
	.quad	24                              ; 0x18

	.section	__TEXT,__objc_methname,cstring_literals
l_OBJC_METH_VAR_NAME_.10:               ; @OBJC_METH_VAR_NAME_.10
	.asciz	"stringByAppendingPathComponent:"

	.section	__DATA,__objc_selrefs,literal_pointers,no_dead_strip
	.p2align	3                               ; @OBJC_SELECTOR_REFERENCES_.11
_OBJC_SELECTOR_REFERENCES_.11:
	.quad	l_OBJC_METH_VAR_NAME_.10

	.section	__TEXT,__objc_methname,cstring_literals
l_OBJC_METH_VAR_NAME_.12:               ; @OBJC_METH_VAR_NAME_.12
	.asciz	"writeToFile:atomically:"

	.section	__DATA,__objc_selrefs,literal_pointers,no_dead_strip
	.p2align	3                               ; @OBJC_SELECTOR_REFERENCES_.13
_OBJC_SELECTOR_REFERENCES_.13:
	.quad	l_OBJC_METH_VAR_NAME_.12

	.section	__TEXT,__cstring,cstring_literals
l_.str.15:                              ; @.str.15
	.asciz	"shared_cache_tpmap.bin"

	.section	__DATA,__cfstring
	.p2align	3                               ; @_unnamed_cfstring_.16
l__unnamed_cfstring_.16:
	.quad	___CFConstantStringClassReference@AUTH(da,27361,addr)
	.long	1992                            ; 0x7c8
	.space	4
	.quad	l_.str.15
	.quad	22                              ; 0x16

	.section	__TEXT,__cstring,cstring_literals
l_.str.18:                              ; @.str.18
	.asciz	"shared_cache_ptrmap.bin"

	.section	__DATA,__cfstring
	.p2align	3                               ; @_unnamed_cfstring_.19
l__unnamed_cfstring_.19:
	.quad	___CFConstantStringClassReference@AUTH(da,27361,addr)
	.long	1992                            ; 0x7c8
	.space	4
	.quad	l_.str.18
	.quad	23                              ; 0x17

	.section	__TEXT,__cstring,cstring_literals
l_.str.20:                              ; @.str.20
	.asciz	"Done. Download the shared_cache profiles via Finder now"

	.private_extern	_OBJC_IVAR_$_AppDelegate._window ; @"OBJC_IVAR_$_AppDelegate._window"
	.section	__DATA,__objc_ivar
	.globl	_OBJC_IVAR_$_AppDelegate._window
	.p2align	2
_OBJC_IVAR_$_AppDelegate._window:
	.long	8                               ; 0x8

	.section	__TEXT,__objc_classname,cstring_literals
l_OBJC_CLASS_NAME_:                     ; @OBJC_CLASS_NAME_
	.asciz	"AppDelegate"

l_OBJC_CLASS_NAME_.21:                  ; @OBJC_CLASS_NAME_.21
	.asciz	"UIApplicationDelegate"

l_OBJC_CLASS_NAME_.22:                  ; @OBJC_CLASS_NAME_.22
	.asciz	"NSObject"

	.section	__TEXT,__objc_methname,cstring_literals
l_OBJC_METH_VAR_NAME_.23:               ; @OBJC_METH_VAR_NAME_.23
	.asciz	"isEqual:"

	.section	__TEXT,__objc_methtype,cstring_literals
l_OBJC_METH_VAR_TYPE_:                  ; @OBJC_METH_VAR_TYPE_
	.asciz	"B24@0:8@16"

	.section	__TEXT,__objc_methname,cstring_literals
l_OBJC_METH_VAR_NAME_.24:               ; @OBJC_METH_VAR_NAME_.24
	.asciz	"class"

	.section	__TEXT,__objc_methtype,cstring_literals
l_OBJC_METH_VAR_TYPE_.25:               ; @OBJC_METH_VAR_TYPE_.25
	.asciz	"#16@0:8"

	.section	__TEXT,__objc_methname,cstring_literals
l_OBJC_METH_VAR_NAME_.26:               ; @OBJC_METH_VAR_NAME_.26
	.asciz	"self"

	.section	__TEXT,__objc_methtype,cstring_literals
l_OBJC_METH_VAR_TYPE_.27:               ; @OBJC_METH_VAR_TYPE_.27
	.asciz	"@16@0:8"

	.section	__TEXT,__objc_methname,cstring_literals
l_OBJC_METH_VAR_NAME_.28:               ; @OBJC_METH_VAR_NAME_.28
	.asciz	"performSelector:"

	.section	__TEXT,__objc_methtype,cstring_literals
l_OBJC_METH_VAR_TYPE_.29:               ; @OBJC_METH_VAR_TYPE_.29
	.asciz	"@24@0:8:16"

	.section	__TEXT,__objc_methname,cstring_literals
l_OBJC_METH_VAR_NAME_.30:               ; @OBJC_METH_VAR_NAME_.30
	.asciz	"performSelector:withObject:"

	.section	__TEXT,__objc_methtype,cstring_literals
l_OBJC_METH_VAR_TYPE_.31:               ; @OBJC_METH_VAR_TYPE_.31
	.asciz	"@32@0:8:16@24"

	.section	__TEXT,__objc_methname,cstring_literals
l_OBJC_METH_VAR_NAME_.32:               ; @OBJC_METH_VAR_NAME_.32
	.asciz	"performSelector:withObject:withObject:"

	.section	__TEXT,__objc_methtype,cstring_literals
l_OBJC_METH_VAR_TYPE_.33:               ; @OBJC_METH_VAR_TYPE_.33
	.asciz	"@40@0:8:16@24@32"

	.section	__TEXT,__objc_methname,cstring_literals
l_OBJC_METH_VAR_NAME_.34:               ; @OBJC_METH_VAR_NAME_.34
	.asciz	"isProxy"

	.section	__TEXT,__objc_methtype,cstring_literals
l_OBJC_METH_VAR_TYPE_.35:               ; @OBJC_METH_VAR_TYPE_.35
	.asciz	"B16@0:8"

	.section	__TEXT,__objc_methname,cstring_literals
l_OBJC_METH_VAR_NAME_.36:               ; @OBJC_METH_VAR_NAME_.36
	.asciz	"isKindOfClass:"

	.section	__TEXT,__objc_methtype,cstring_literals
l_OBJC_METH_VAR_TYPE_.37:               ; @OBJC_METH_VAR_TYPE_.37
	.asciz	"B24@0:8#16"

	.section	__TEXT,__objc_methname,cstring_literals
l_OBJC_METH_VAR_NAME_.38:               ; @OBJC_METH_VAR_NAME_.38
	.asciz	"isMemberOfClass:"

l_OBJC_METH_VAR_NAME_.39:               ; @OBJC_METH_VAR_NAME_.39
	.asciz	"conformsToProtocol:"

l_OBJC_METH_VAR_NAME_.40:               ; @OBJC_METH_VAR_NAME_.40
	.asciz	"respondsToSelector:"

	.section	__TEXT,__objc_methtype,cstring_literals
l_OBJC_METH_VAR_TYPE_.41:               ; @OBJC_METH_VAR_TYPE_.41
	.asciz	"B24@0:8:16"

	.section	__TEXT,__objc_methname,cstring_literals
l_OBJC_METH_VAR_NAME_.42:               ; @OBJC_METH_VAR_NAME_.42
	.asciz	"retain"

l_OBJC_METH_VAR_NAME_.43:               ; @OBJC_METH_VAR_NAME_.43
	.asciz	"release"

	.section	__TEXT,__objc_methtype,cstring_literals
l_OBJC_METH_VAR_TYPE_.44:               ; @OBJC_METH_VAR_TYPE_.44
	.asciz	"Vv16@0:8"

	.section	__TEXT,__objc_methname,cstring_literals
l_OBJC_METH_VAR_NAME_.45:               ; @OBJC_METH_VAR_NAME_.45
	.asciz	"autorelease"

l_OBJC_METH_VAR_NAME_.46:               ; @OBJC_METH_VAR_NAME_.46
	.asciz	"retainCount"

	.section	__TEXT,__objc_methtype,cstring_literals
l_OBJC_METH_VAR_TYPE_.47:               ; @OBJC_METH_VAR_TYPE_.47
	.asciz	"Q16@0:8"

	.section	__TEXT,__objc_methname,cstring_literals
l_OBJC_METH_VAR_NAME_.48:               ; @OBJC_METH_VAR_NAME_.48
	.asciz	"zone"

	.section	__TEXT,__objc_methtype,cstring_literals
l_OBJC_METH_VAR_TYPE_.49:               ; @OBJC_METH_VAR_TYPE_.49
	.asciz	"^{_NSZone=}16@0:8"

	.section	__TEXT,__objc_methname,cstring_literals
l_OBJC_METH_VAR_NAME_.50:               ; @OBJC_METH_VAR_NAME_.50
	.asciz	"hash"

l_OBJC_METH_VAR_NAME_.51:               ; @OBJC_METH_VAR_NAME_.51
	.asciz	"superclass"

l_OBJC_METH_VAR_NAME_.52:               ; @OBJC_METH_VAR_NAME_.52
	.asciz	"description"

	.section	__DATA,__objc_const
	.p2align	3                               ; @"_OBJC_$_PROTOCOL_INSTANCE_METHODS_NSObject"
__OBJC_$_PROTOCOL_INSTANCE_METHODS_NSObject:
	.long	24                              ; 0x18
	.long	19                              ; 0x13
	.quad	l_OBJC_METH_VAR_NAME_.23
	.quad	l_OBJC_METH_VAR_TYPE_
	.quad	0
	.quad	l_OBJC_METH_VAR_NAME_.24
	.quad	l_OBJC_METH_VAR_TYPE_.25
	.quad	0
	.quad	l_OBJC_METH_VAR_NAME_.26
	.quad	l_OBJC_METH_VAR_TYPE_.27
	.quad	0
	.quad	l_OBJC_METH_VAR_NAME_.28
	.quad	l_OBJC_METH_VAR_TYPE_.29
	.quad	0
	.quad	l_OBJC_METH_VAR_NAME_.30
	.quad	l_OBJC_METH_VAR_TYPE_.31
	.quad	0
	.quad	l_OBJC_METH_VAR_NAME_.32
	.quad	l_OBJC_METH_VAR_TYPE_.33
	.quad	0
	.quad	l_OBJC_METH_VAR_NAME_.34
	.quad	l_OBJC_METH_VAR_TYPE_.35
	.quad	0
	.quad	l_OBJC_METH_VAR_NAME_.36
	.quad	l_OBJC_METH_VAR_TYPE_.37
	.quad	0
	.quad	l_OBJC_METH_VAR_NAME_.38
	.quad	l_OBJC_METH_VAR_TYPE_.37
	.quad	0
	.quad	l_OBJC_METH_VAR_NAME_.39
	.quad	l_OBJC_METH_VAR_TYPE_
	.quad	0
	.quad	l_OBJC_METH_VAR_NAME_.40
	.quad	l_OBJC_METH_VAR_TYPE_.41
	.quad	0
	.quad	l_OBJC_METH_VAR_NAME_.42
	.quad	l_OBJC_METH_VAR_TYPE_.27
	.quad	0
	.quad	l_OBJC_METH_VAR_NAME_.43
	.quad	l_OBJC_METH_VAR_TYPE_.44
	.quad	0
	.quad	l_OBJC_METH_VAR_NAME_.45
	.quad	l_OBJC_METH_VAR_TYPE_.27
	.quad	0
	.quad	l_OBJC_METH_VAR_NAME_.46
	.quad	l_OBJC_METH_VAR_TYPE_.47
	.quad	0
	.quad	l_OBJC_METH_VAR_NAME_.48
	.quad	l_OBJC_METH_VAR_TYPE_.49
	.quad	0
	.quad	l_OBJC_METH_VAR_NAME_.50
	.quad	l_OBJC_METH_VAR_TYPE_.47
	.quad	0
	.quad	l_OBJC_METH_VAR_NAME_.51
	.quad	l_OBJC_METH_VAR_TYPE_.25
	.quad	0
	.quad	l_OBJC_METH_VAR_NAME_.52
	.quad	l_OBJC_METH_VAR_TYPE_.27
	.quad	0

	.section	__TEXT,__objc_methname,cstring_literals
l_OBJC_METH_VAR_NAME_.53:               ; @OBJC_METH_VAR_NAME_.53
	.asciz	"debugDescription"

	.section	__DATA,__objc_const
	.p2align	3                               ; @"_OBJC_$_PROTOCOL_INSTANCE_METHODS_OPT_NSObject"
__OBJC_$_PROTOCOL_INSTANCE_METHODS_OPT_NSObject:
	.long	24                              ; 0x18
	.long	1                               ; 0x1
	.quad	l_OBJC_METH_VAR_NAME_.53
	.quad	l_OBJC_METH_VAR_TYPE_.27
	.quad	0

	.section	__TEXT,__objc_methname,cstring_literals
l_OBJC_PROP_NAME_ATTR_:                 ; @OBJC_PROP_NAME_ATTR_
	.asciz	"hash"

l_OBJC_PROP_NAME_ATTR_.54:              ; @OBJC_PROP_NAME_ATTR_.54
	.asciz	"TQ,R"

l_OBJC_PROP_NAME_ATTR_.55:              ; @OBJC_PROP_NAME_ATTR_.55
	.asciz	"superclass"

l_OBJC_PROP_NAME_ATTR_.56:              ; @OBJC_PROP_NAME_ATTR_.56
	.asciz	"T#,R"

l_OBJC_PROP_NAME_ATTR_.57:              ; @OBJC_PROP_NAME_ATTR_.57
	.asciz	"description"

l_OBJC_PROP_NAME_ATTR_.58:              ; @OBJC_PROP_NAME_ATTR_.58
	.asciz	"T@\"NSString\",R,C"

l_OBJC_PROP_NAME_ATTR_.59:              ; @OBJC_PROP_NAME_ATTR_.59
	.asciz	"debugDescription"

	.section	__DATA,__objc_const
	.p2align	3                               ; @"_OBJC_$_PROP_LIST_NSObject"
__OBJC_$_PROP_LIST_NSObject:
	.long	16                              ; 0x10
	.long	4                               ; 0x4
	.quad	l_OBJC_PROP_NAME_ATTR_
	.quad	l_OBJC_PROP_NAME_ATTR_.54
	.quad	l_OBJC_PROP_NAME_ATTR_.55
	.quad	l_OBJC_PROP_NAME_ATTR_.56
	.quad	l_OBJC_PROP_NAME_ATTR_.57
	.quad	l_OBJC_PROP_NAME_ATTR_.58
	.quad	l_OBJC_PROP_NAME_ATTR_.59
	.quad	l_OBJC_PROP_NAME_ATTR_.58

	.section	__TEXT,__objc_methtype,cstring_literals
l_OBJC_METH_VAR_TYPE_.60:               ; @OBJC_METH_VAR_TYPE_.60
	.asciz	"B24@0:8@\"Protocol\"16"

l_OBJC_METH_VAR_TYPE_.61:               ; @OBJC_METH_VAR_TYPE_.61
	.asciz	"@\"NSString\"16@0:8"

	.section	__DATA,__objc_const
	.p2align	3                               ; @"_OBJC_$_PROTOCOL_METHOD_TYPES_NSObject"
__OBJC_$_PROTOCOL_METHOD_TYPES_NSObject:
	.quad	l_OBJC_METH_VAR_TYPE_
	.quad	l_OBJC_METH_VAR_TYPE_.25
	.quad	l_OBJC_METH_VAR_TYPE_.27
	.quad	l_OBJC_METH_VAR_TYPE_.29
	.quad	l_OBJC_METH_VAR_TYPE_.31
	.quad	l_OBJC_METH_VAR_TYPE_.33
	.quad	l_OBJC_METH_VAR_TYPE_.35
	.quad	l_OBJC_METH_VAR_TYPE_.37
	.quad	l_OBJC_METH_VAR_TYPE_.37
	.quad	l_OBJC_METH_VAR_TYPE_.60
	.quad	l_OBJC_METH_VAR_TYPE_.41
	.quad	l_OBJC_METH_VAR_TYPE_.27
	.quad	l_OBJC_METH_VAR_TYPE_.44
	.quad	l_OBJC_METH_VAR_TYPE_.27
	.quad	l_OBJC_METH_VAR_TYPE_.47
	.quad	l_OBJC_METH_VAR_TYPE_.49
	.quad	l_OBJC_METH_VAR_TYPE_.47
	.quad	l_OBJC_METH_VAR_TYPE_.25
	.quad	l_OBJC_METH_VAR_TYPE_.61
	.quad	l_OBJC_METH_VAR_TYPE_.61

	.private_extern	__OBJC_PROTOCOL_$_NSObject ; @"_OBJC_PROTOCOL_$_NSObject"
	.section	__DATA,__data
	.globl	__OBJC_PROTOCOL_$_NSObject
	.weak_definition	__OBJC_PROTOCOL_$_NSObject
	.p2align	3
__OBJC_PROTOCOL_$_NSObject:
	.quad	0
	.quad	l_OBJC_CLASS_NAME_.22
	.quad	0
	.quad	__OBJC_$_PROTOCOL_INSTANCE_METHODS_NSObject
	.quad	0
	.quad	__OBJC_$_PROTOCOL_INSTANCE_METHODS_OPT_NSObject
	.quad	0
	.quad	__OBJC_$_PROP_LIST_NSObject
	.long	96                              ; 0x60
	.long	0                               ; 0x0
	.quad	__OBJC_$_PROTOCOL_METHOD_TYPES_NSObject
	.quad	0
	.quad	0

	.private_extern	__OBJC_LABEL_PROTOCOL_$_NSObject ; @"_OBJC_LABEL_PROTOCOL_$_NSObject"
	.section	__DATA,__objc_protolist,coalesced,no_dead_strip
	.globl	__OBJC_LABEL_PROTOCOL_$_NSObject
	.weak_definition	__OBJC_LABEL_PROTOCOL_$_NSObject
	.p2align	3
__OBJC_LABEL_PROTOCOL_$_NSObject:
	.quad	__OBJC_PROTOCOL_$_NSObject

	.section	__DATA,__objc_const
	.p2align	3                               ; @"_OBJC_$_PROTOCOL_REFS_UIApplicationDelegate"
__OBJC_$_PROTOCOL_REFS_UIApplicationDelegate:
	.quad	1                               ; 0x1
	.quad	__OBJC_PROTOCOL_$_NSObject
	.quad	0

	.section	__TEXT,__objc_methname,cstring_literals
l_OBJC_METH_VAR_NAME_.62:               ; @OBJC_METH_VAR_NAME_.62
	.asciz	"applicationDidFinishLaunching:"

	.section	__TEXT,__objc_methtype,cstring_literals
l_OBJC_METH_VAR_TYPE_.63:               ; @OBJC_METH_VAR_TYPE_.63
	.asciz	"v24@0:8@16"

	.section	__TEXT,__objc_methname,cstring_literals
l_OBJC_METH_VAR_NAME_.64:               ; @OBJC_METH_VAR_NAME_.64
	.asciz	"application:willFinishLaunchingWithOptions:"

	.section	__TEXT,__objc_methtype,cstring_literals
l_OBJC_METH_VAR_TYPE_.65:               ; @OBJC_METH_VAR_TYPE_.65
	.asciz	"B32@0:8@16@24"

	.section	__TEXT,__objc_methname,cstring_literals
l_OBJC_METH_VAR_NAME_.66:               ; @OBJC_METH_VAR_NAME_.66
	.asciz	"application:didFinishLaunchingWithOptions:"

l_OBJC_METH_VAR_NAME_.67:               ; @OBJC_METH_VAR_NAME_.67
	.asciz	"applicationDidBecomeActive:"

l_OBJC_METH_VAR_NAME_.68:               ; @OBJC_METH_VAR_NAME_.68
	.asciz	"applicationWillResignActive:"

l_OBJC_METH_VAR_NAME_.69:               ; @OBJC_METH_VAR_NAME_.69
	.asciz	"application:handleOpenURL:"

l_OBJC_METH_VAR_NAME_.70:               ; @OBJC_METH_VAR_NAME_.70
	.asciz	"application:openURL:sourceApplication:annotation:"

	.section	__TEXT,__objc_methtype,cstring_literals
l_OBJC_METH_VAR_TYPE_.71:               ; @OBJC_METH_VAR_TYPE_.71
	.asciz	"B48@0:8@16@24@32@40"

	.section	__TEXT,__objc_methname,cstring_literals
l_OBJC_METH_VAR_NAME_.72:               ; @OBJC_METH_VAR_NAME_.72
	.asciz	"application:openURL:options:"

	.section	__TEXT,__objc_methtype,cstring_literals
l_OBJC_METH_VAR_TYPE_.73:               ; @OBJC_METH_VAR_TYPE_.73
	.asciz	"B40@0:8@16@24@32"

	.section	__TEXT,__objc_methname,cstring_literals
l_OBJC_METH_VAR_NAME_.74:               ; @OBJC_METH_VAR_NAME_.74
	.asciz	"applicationDidReceiveMemoryWarning:"

l_OBJC_METH_VAR_NAME_.75:               ; @OBJC_METH_VAR_NAME_.75
	.asciz	"applicationWillTerminate:"

l_OBJC_METH_VAR_NAME_.76:               ; @OBJC_METH_VAR_NAME_.76
	.asciz	"applicationSignificantTimeChange:"

l_OBJC_METH_VAR_NAME_.77:               ; @OBJC_METH_VAR_NAME_.77
	.asciz	"application:willChangeStatusBarOrientation:duration:"

	.section	__TEXT,__objc_methtype,cstring_literals
l_OBJC_METH_VAR_TYPE_.78:               ; @OBJC_METH_VAR_TYPE_.78
	.asciz	"v40@0:8@16q24d32"

	.section	__TEXT,__objc_methname,cstring_literals
l_OBJC_METH_VAR_NAME_.79:               ; @OBJC_METH_VAR_NAME_.79
	.asciz	"application:didChangeStatusBarOrientation:"

	.section	__TEXT,__objc_methtype,cstring_literals
l_OBJC_METH_VAR_TYPE_.80:               ; @OBJC_METH_VAR_TYPE_.80
	.asciz	"v32@0:8@16q24"

	.section	__TEXT,__objc_methname,cstring_literals
l_OBJC_METH_VAR_NAME_.81:               ; @OBJC_METH_VAR_NAME_.81
	.asciz	"application:willChangeStatusBarFrame:"

	.section	__TEXT,__objc_methtype,cstring_literals
l_OBJC_METH_VAR_TYPE_.82:               ; @OBJC_METH_VAR_TYPE_.82
	.asciz	"v56@0:8@16{CGRect={CGPoint=dd}{CGSize=dd}}24"

	.section	__TEXT,__objc_methname,cstring_literals
l_OBJC_METH_VAR_NAME_.83:               ; @OBJC_METH_VAR_NAME_.83
	.asciz	"application:didChangeStatusBarFrame:"

l_OBJC_METH_VAR_NAME_.84:               ; @OBJC_METH_VAR_NAME_.84
	.asciz	"application:didRegisterUserNotificationSettings:"

	.section	__TEXT,__objc_methtype,cstring_literals
l_OBJC_METH_VAR_TYPE_.85:               ; @OBJC_METH_VAR_TYPE_.85
	.asciz	"v32@0:8@16@24"

	.section	__TEXT,__objc_methname,cstring_literals
l_OBJC_METH_VAR_NAME_.86:               ; @OBJC_METH_VAR_NAME_.86
	.asciz	"application:didRegisterForRemoteNotificationsWithDeviceToken:"

l_OBJC_METH_VAR_NAME_.87:               ; @OBJC_METH_VAR_NAME_.87
	.asciz	"application:didFailToRegisterForRemoteNotificationsWithError:"

l_OBJC_METH_VAR_NAME_.88:               ; @OBJC_METH_VAR_NAME_.88
	.asciz	"application:didReceiveRemoteNotification:"

l_OBJC_METH_VAR_NAME_.89:               ; @OBJC_METH_VAR_NAME_.89
	.asciz	"application:didReceiveLocalNotification:"

l_OBJC_METH_VAR_NAME_.90:               ; @OBJC_METH_VAR_NAME_.90
	.asciz	"application:handleActionWithIdentifier:forLocalNotification:completionHandler:"

	.section	__TEXT,__objc_methtype,cstring_literals
l_OBJC_METH_VAR_TYPE_.91:               ; @OBJC_METH_VAR_TYPE_.91
	.asciz	"v48@0:8@16@24@32@?40"

	.section	__TEXT,__objc_methname,cstring_literals
l_OBJC_METH_VAR_NAME_.92:               ; @OBJC_METH_VAR_NAME_.92
	.asciz	"application:handleActionWithIdentifier:forRemoteNotification:withResponseInfo:completionHandler:"

	.section	__TEXT,__objc_methtype,cstring_literals
l_OBJC_METH_VAR_TYPE_.93:               ; @OBJC_METH_VAR_TYPE_.93
	.asciz	"v56@0:8@16@24@32@40@?48"

	.section	__TEXT,__objc_methname,cstring_literals
l_OBJC_METH_VAR_NAME_.94:               ; @OBJC_METH_VAR_NAME_.94
	.asciz	"application:handleActionWithIdentifier:forRemoteNotification:completionHandler:"

l_OBJC_METH_VAR_NAME_.95:               ; @OBJC_METH_VAR_NAME_.95
	.asciz	"application:handleActionWithIdentifier:forLocalNotification:withResponseInfo:completionHandler:"

l_OBJC_METH_VAR_NAME_.96:               ; @OBJC_METH_VAR_NAME_.96
	.asciz	"application:didReceiveRemoteNotification:fetchCompletionHandler:"

	.section	__TEXT,__objc_methtype,cstring_literals
l_OBJC_METH_VAR_TYPE_.97:               ; @OBJC_METH_VAR_TYPE_.97
	.asciz	"v40@0:8@16@24@?32"

	.section	__TEXT,__objc_methname,cstring_literals
l_OBJC_METH_VAR_NAME_.98:               ; @OBJC_METH_VAR_NAME_.98
	.asciz	"application:performFetchWithCompletionHandler:"

	.section	__TEXT,__objc_methtype,cstring_literals
l_OBJC_METH_VAR_TYPE_.99:               ; @OBJC_METH_VAR_TYPE_.99
	.asciz	"v32@0:8@16@?24"

	.section	__TEXT,__objc_methname,cstring_literals
l_OBJC_METH_VAR_NAME_.100:              ; @OBJC_METH_VAR_NAME_.100
	.asciz	"application:performActionForShortcutItem:completionHandler:"

l_OBJC_METH_VAR_NAME_.101:              ; @OBJC_METH_VAR_NAME_.101
	.asciz	"application:handleEventsForBackgroundURLSession:completionHandler:"

l_OBJC_METH_VAR_NAME_.102:              ; @OBJC_METH_VAR_NAME_.102
	.asciz	"application:handleWatchKitExtensionRequest:reply:"

l_OBJC_METH_VAR_NAME_.103:              ; @OBJC_METH_VAR_NAME_.103
	.asciz	"applicationShouldRequestHealthAuthorization:"

l_OBJC_METH_VAR_NAME_.104:              ; @OBJC_METH_VAR_NAME_.104
	.asciz	"application:handlerForIntent:"

	.section	__TEXT,__objc_methtype,cstring_literals
l_OBJC_METH_VAR_TYPE_.105:              ; @OBJC_METH_VAR_TYPE_.105
	.asciz	"@32@0:8@16@24"

	.section	__TEXT,__objc_methname,cstring_literals
l_OBJC_METH_VAR_NAME_.106:              ; @OBJC_METH_VAR_NAME_.106
	.asciz	"application:handleIntent:completionHandler:"

l_OBJC_METH_VAR_NAME_.107:              ; @OBJC_METH_VAR_NAME_.107
	.asciz	"applicationDidEnterBackground:"

l_OBJC_METH_VAR_NAME_.108:              ; @OBJC_METH_VAR_NAME_.108
	.asciz	"applicationWillEnterForeground:"

l_OBJC_METH_VAR_NAME_.109:              ; @OBJC_METH_VAR_NAME_.109
	.asciz	"applicationProtectedDataWillBecomeUnavailable:"

l_OBJC_METH_VAR_NAME_.110:              ; @OBJC_METH_VAR_NAME_.110
	.asciz	"applicationProtectedDataDidBecomeAvailable:"

l_OBJC_METH_VAR_NAME_.111:              ; @OBJC_METH_VAR_NAME_.111
	.asciz	"application:supportedInterfaceOrientationsForWindow:"

	.section	__TEXT,__objc_methtype,cstring_literals
l_OBJC_METH_VAR_TYPE_.112:              ; @OBJC_METH_VAR_TYPE_.112
	.asciz	"Q32@0:8@16@24"

	.section	__TEXT,__objc_methname,cstring_literals
l_OBJC_METH_VAR_NAME_.113:              ; @OBJC_METH_VAR_NAME_.113
	.asciz	"application:shouldAllowExtensionPointIdentifier:"

l_OBJC_METH_VAR_NAME_.114:              ; @OBJC_METH_VAR_NAME_.114
	.asciz	"application:viewControllerWithRestorationIdentifierPath:coder:"

	.section	__TEXT,__objc_methtype,cstring_literals
l_OBJC_METH_VAR_TYPE_.115:              ; @OBJC_METH_VAR_TYPE_.115
	.asciz	"@40@0:8@16@24@32"

	.section	__TEXT,__objc_methname,cstring_literals
l_OBJC_METH_VAR_NAME_.116:              ; @OBJC_METH_VAR_NAME_.116
	.asciz	"application:shouldSaveSecureApplicationState:"

l_OBJC_METH_VAR_NAME_.117:              ; @OBJC_METH_VAR_NAME_.117
	.asciz	"application:shouldRestoreSecureApplicationState:"

l_OBJC_METH_VAR_NAME_.118:              ; @OBJC_METH_VAR_NAME_.118
	.asciz	"application:willEncodeRestorableStateWithCoder:"

l_OBJC_METH_VAR_NAME_.119:              ; @OBJC_METH_VAR_NAME_.119
	.asciz	"application:didDecodeRestorableStateWithCoder:"

l_OBJC_METH_VAR_NAME_.120:              ; @OBJC_METH_VAR_NAME_.120
	.asciz	"application:shouldSaveApplicationState:"

l_OBJC_METH_VAR_NAME_.121:              ; @OBJC_METH_VAR_NAME_.121
	.asciz	"application:shouldRestoreApplicationState:"

l_OBJC_METH_VAR_NAME_.122:              ; @OBJC_METH_VAR_NAME_.122
	.asciz	"application:willContinueUserActivityWithType:"

l_OBJC_METH_VAR_NAME_.123:              ; @OBJC_METH_VAR_NAME_.123
	.asciz	"application:continueUserActivity:restorationHandler:"

	.section	__TEXT,__objc_methtype,cstring_literals
l_OBJC_METH_VAR_TYPE_.124:              ; @OBJC_METH_VAR_TYPE_.124
	.asciz	"B40@0:8@16@24@?32"

	.section	__TEXT,__objc_methname,cstring_literals
l_OBJC_METH_VAR_NAME_.125:              ; @OBJC_METH_VAR_NAME_.125
	.asciz	"application:didFailToContinueUserActivityWithType:error:"

	.section	__TEXT,__objc_methtype,cstring_literals
l_OBJC_METH_VAR_TYPE_.126:              ; @OBJC_METH_VAR_TYPE_.126
	.asciz	"v40@0:8@16@24@32"

	.section	__TEXT,__objc_methname,cstring_literals
l_OBJC_METH_VAR_NAME_.127:              ; @OBJC_METH_VAR_NAME_.127
	.asciz	"application:didUpdateUserActivity:"

l_OBJC_METH_VAR_NAME_.128:              ; @OBJC_METH_VAR_NAME_.128
	.asciz	"application:userDidAcceptCloudKitShareWithMetadata:"

l_OBJC_METH_VAR_NAME_.129:              ; @OBJC_METH_VAR_NAME_.129
	.asciz	"application:configurationForConnectingSceneSession:options:"

l_OBJC_METH_VAR_NAME_.130:              ; @OBJC_METH_VAR_NAME_.130
	.asciz	"application:didDiscardSceneSessions:"

l_OBJC_METH_VAR_NAME_.131:              ; @OBJC_METH_VAR_NAME_.131
	.asciz	"applicationShouldAutomaticallyLocalizeKeyCommands:"

l_OBJC_METH_VAR_NAME_.132:              ; @OBJC_METH_VAR_NAME_.132
	.asciz	"window"

l_OBJC_METH_VAR_NAME_.133:              ; @OBJC_METH_VAR_NAME_.133
	.asciz	"setWindow:"

	.section	__DATA,__objc_const
	.p2align	3                               ; @"_OBJC_$_PROTOCOL_INSTANCE_METHODS_OPT_UIApplicationDelegate"
__OBJC_$_PROTOCOL_INSTANCE_METHODS_OPT_UIApplicationDelegate:
	.long	24                              ; 0x18
	.long	55                              ; 0x37
	.quad	l_OBJC_METH_VAR_NAME_.62
	.quad	l_OBJC_METH_VAR_TYPE_.63
	.quad	0
	.quad	l_OBJC_METH_VAR_NAME_.64
	.quad	l_OBJC_METH_VAR_TYPE_.65
	.quad	0
	.quad	l_OBJC_METH_VAR_NAME_.66
	.quad	l_OBJC_METH_VAR_TYPE_.65
	.quad	0
	.quad	l_OBJC_METH_VAR_NAME_.67
	.quad	l_OBJC_METH_VAR_TYPE_.63
	.quad	0
	.quad	l_OBJC_METH_VAR_NAME_.68
	.quad	l_OBJC_METH_VAR_TYPE_.63
	.quad	0
	.quad	l_OBJC_METH_VAR_NAME_.69
	.quad	l_OBJC_METH_VAR_TYPE_.65
	.quad	0
	.quad	l_OBJC_METH_VAR_NAME_.70
	.quad	l_OBJC_METH_VAR_TYPE_.71
	.quad	0
	.quad	l_OBJC_METH_VAR_NAME_.72
	.quad	l_OBJC_METH_VAR_TYPE_.73
	.quad	0
	.quad	l_OBJC_METH_VAR_NAME_.74
	.quad	l_OBJC_METH_VAR_TYPE_.63
	.quad	0
	.quad	l_OBJC_METH_VAR_NAME_.75
	.quad	l_OBJC_METH_VAR_TYPE_.63
	.quad	0
	.quad	l_OBJC_METH_VAR_NAME_.76
	.quad	l_OBJC_METH_VAR_TYPE_.63
	.quad	0
	.quad	l_OBJC_METH_VAR_NAME_.77
	.quad	l_OBJC_METH_VAR_TYPE_.78
	.quad	0
	.quad	l_OBJC_METH_VAR_NAME_.79
	.quad	l_OBJC_METH_VAR_TYPE_.80
	.quad	0
	.quad	l_OBJC_METH_VAR_NAME_.81
	.quad	l_OBJC_METH_VAR_TYPE_.82
	.quad	0
	.quad	l_OBJC_METH_VAR_NAME_.83
	.quad	l_OBJC_METH_VAR_TYPE_.82
	.quad	0
	.quad	l_OBJC_METH_VAR_NAME_.84
	.quad	l_OBJC_METH_VAR_TYPE_.85
	.quad	0
	.quad	l_OBJC_METH_VAR_NAME_.86
	.quad	l_OBJC_METH_VAR_TYPE_.85
	.quad	0
	.quad	l_OBJC_METH_VAR_NAME_.87
	.quad	l_OBJC_METH_VAR_TYPE_.85
	.quad	0
	.quad	l_OBJC_METH_VAR_NAME_.88
	.quad	l_OBJC_METH_VAR_TYPE_.85
	.quad	0
	.quad	l_OBJC_METH_VAR_NAME_.89
	.quad	l_OBJC_METH_VAR_TYPE_.85
	.quad	0
	.quad	l_OBJC_METH_VAR_NAME_.90
	.quad	l_OBJC_METH_VAR_TYPE_.91
	.quad	0
	.quad	l_OBJC_METH_VAR_NAME_.92
	.quad	l_OBJC_METH_VAR_TYPE_.93
	.quad	0
	.quad	l_OBJC_METH_VAR_NAME_.94
	.quad	l_OBJC_METH_VAR_TYPE_.91
	.quad	0
	.quad	l_OBJC_METH_VAR_NAME_.95
	.quad	l_OBJC_METH_VAR_TYPE_.93
	.quad	0
	.quad	l_OBJC_METH_VAR_NAME_.96
	.quad	l_OBJC_METH_VAR_TYPE_.97
	.quad	0
	.quad	l_OBJC_METH_VAR_NAME_.98
	.quad	l_OBJC_METH_VAR_TYPE_.99
	.quad	0
	.quad	l_OBJC_METH_VAR_NAME_.100
	.quad	l_OBJC_METH_VAR_TYPE_.97
	.quad	0
	.quad	l_OBJC_METH_VAR_NAME_.101
	.quad	l_OBJC_METH_VAR_TYPE_.97
	.quad	0
	.quad	l_OBJC_METH_VAR_NAME_.102
	.quad	l_OBJC_METH_VAR_TYPE_.97
	.quad	0
	.quad	l_OBJC_METH_VAR_NAME_.103
	.quad	l_OBJC_METH_VAR_TYPE_.63
	.quad	0
	.quad	l_OBJC_METH_VAR_NAME_.104
	.quad	l_OBJC_METH_VAR_TYPE_.105
	.quad	0
	.quad	l_OBJC_METH_VAR_NAME_.106
	.quad	l_OBJC_METH_VAR_TYPE_.97
	.quad	0
	.quad	l_OBJC_METH_VAR_NAME_.107
	.quad	l_OBJC_METH_VAR_TYPE_.63
	.quad	0
	.quad	l_OBJC_METH_VAR_NAME_.108
	.quad	l_OBJC_METH_VAR_TYPE_.63
	.quad	0
	.quad	l_OBJC_METH_VAR_NAME_.109
	.quad	l_OBJC_METH_VAR_TYPE_.63
	.quad	0
	.quad	l_OBJC_METH_VAR_NAME_.110
	.quad	l_OBJC_METH_VAR_TYPE_.63
	.quad	0
	.quad	l_OBJC_METH_VAR_NAME_.111
	.quad	l_OBJC_METH_VAR_TYPE_.112
	.quad	0
	.quad	l_OBJC_METH_VAR_NAME_.113
	.quad	l_OBJC_METH_VAR_TYPE_.65
	.quad	0
	.quad	l_OBJC_METH_VAR_NAME_.114
	.quad	l_OBJC_METH_VAR_TYPE_.115
	.quad	0
	.quad	l_OBJC_METH_VAR_NAME_.116
	.quad	l_OBJC_METH_VAR_TYPE_.65
	.quad	0
	.quad	l_OBJC_METH_VAR_NAME_.117
	.quad	l_OBJC_METH_VAR_TYPE_.65
	.quad	0
	.quad	l_OBJC_METH_VAR_NAME_.118
	.quad	l_OBJC_METH_VAR_TYPE_.85
	.quad	0
	.quad	l_OBJC_METH_VAR_NAME_.119
	.quad	l_OBJC_METH_VAR_TYPE_.85
	.quad	0
	.quad	l_OBJC_METH_VAR_NAME_.120
	.quad	l_OBJC_METH_VAR_TYPE_.65
	.quad	0
	.quad	l_OBJC_METH_VAR_NAME_.121
	.quad	l_OBJC_METH_VAR_TYPE_.65
	.quad	0
	.quad	l_OBJC_METH_VAR_NAME_.122
	.quad	l_OBJC_METH_VAR_TYPE_.65
	.quad	0
	.quad	l_OBJC_METH_VAR_NAME_.123
	.quad	l_OBJC_METH_VAR_TYPE_.124
	.quad	0
	.quad	l_OBJC_METH_VAR_NAME_.125
	.quad	l_OBJC_METH_VAR_TYPE_.126
	.quad	0
	.quad	l_OBJC_METH_VAR_NAME_.127
	.quad	l_OBJC_METH_VAR_TYPE_.85
	.quad	0
	.quad	l_OBJC_METH_VAR_NAME_.128
	.quad	l_OBJC_METH_VAR_TYPE_.85
	.quad	0
	.quad	l_OBJC_METH_VAR_NAME_.129
	.quad	l_OBJC_METH_VAR_TYPE_.115
	.quad	0
	.quad	l_OBJC_METH_VAR_NAME_.130
	.quad	l_OBJC_METH_VAR_TYPE_.85
	.quad	0
	.quad	l_OBJC_METH_VAR_NAME_.131
	.quad	l_OBJC_METH_VAR_TYPE_
	.quad	0
	.quad	l_OBJC_METH_VAR_NAME_.132
	.quad	l_OBJC_METH_VAR_TYPE_.27
	.quad	0
	.quad	l_OBJC_METH_VAR_NAME_.133
	.quad	l_OBJC_METH_VAR_TYPE_.63
	.quad	0

	.section	__TEXT,__objc_methname,cstring_literals
l_OBJC_PROP_NAME_ATTR_.134:             ; @OBJC_PROP_NAME_ATTR_.134
	.asciz	"window"

l_OBJC_PROP_NAME_ATTR_.135:             ; @OBJC_PROP_NAME_ATTR_.135
	.asciz	"T@\"UIWindow\",&,N"

	.section	__DATA,__objc_const
	.p2align	3                               ; @"_OBJC_$_PROP_LIST_UIApplicationDelegate"
__OBJC_$_PROP_LIST_UIApplicationDelegate:
	.long	16                              ; 0x10
	.long	1                               ; 0x1
	.quad	l_OBJC_PROP_NAME_ATTR_.134
	.quad	l_OBJC_PROP_NAME_ATTR_.135

	.section	__TEXT,__objc_methtype,cstring_literals
l_OBJC_METH_VAR_TYPE_.136:              ; @OBJC_METH_VAR_TYPE_.136
	.asciz	"v24@0:8@\"UIApplication\"16"

l_OBJC_METH_VAR_TYPE_.137:              ; @OBJC_METH_VAR_TYPE_.137
	.asciz	"B32@0:8@\"UIApplication\"16@\"NSDictionary\"24"

l_OBJC_METH_VAR_TYPE_.138:              ; @OBJC_METH_VAR_TYPE_.138
	.asciz	"B32@0:8@\"UIApplication\"16@\"NSURL\"24"

l_OBJC_METH_VAR_TYPE_.139:              ; @OBJC_METH_VAR_TYPE_.139
	.asciz	"B48@0:8@\"UIApplication\"16@\"NSURL\"24@\"NSString\"32@40"

l_OBJC_METH_VAR_TYPE_.140:              ; @OBJC_METH_VAR_TYPE_.140
	.asciz	"B40@0:8@\"UIApplication\"16@\"NSURL\"24@\"NSDictionary\"32"

l_OBJC_METH_VAR_TYPE_.141:              ; @OBJC_METH_VAR_TYPE_.141
	.asciz	"v40@0:8@\"UIApplication\"16q24d32"

l_OBJC_METH_VAR_TYPE_.142:              ; @OBJC_METH_VAR_TYPE_.142
	.asciz	"v32@0:8@\"UIApplication\"16q24"

l_OBJC_METH_VAR_TYPE_.143:              ; @OBJC_METH_VAR_TYPE_.143
	.asciz	"v56@0:8@\"UIApplication\"16{CGRect={CGPoint=dd}{CGSize=dd}}24"

l_OBJC_METH_VAR_TYPE_.144:              ; @OBJC_METH_VAR_TYPE_.144
	.asciz	"v32@0:8@\"UIApplication\"16@\"UIUserNotificationSettings\"24"

l_OBJC_METH_VAR_TYPE_.145:              ; @OBJC_METH_VAR_TYPE_.145
	.asciz	"v32@0:8@\"UIApplication\"16@\"NSData\"24"

l_OBJC_METH_VAR_TYPE_.146:              ; @OBJC_METH_VAR_TYPE_.146
	.asciz	"v32@0:8@\"UIApplication\"16@\"NSError\"24"

l_OBJC_METH_VAR_TYPE_.147:              ; @OBJC_METH_VAR_TYPE_.147
	.asciz	"v32@0:8@\"UIApplication\"16@\"NSDictionary\"24"

l_OBJC_METH_VAR_TYPE_.148:              ; @OBJC_METH_VAR_TYPE_.148
	.asciz	"v32@0:8@\"UIApplication\"16@\"UILocalNotification\"24"

l_OBJC_METH_VAR_TYPE_.149:              ; @OBJC_METH_VAR_TYPE_.149
	.asciz	"v48@0:8@\"UIApplication\"16@\"NSString\"24@\"UILocalNotification\"32@?<v@?>40"

l_OBJC_METH_VAR_TYPE_.150:              ; @OBJC_METH_VAR_TYPE_.150
	.asciz	"v56@0:8@\"UIApplication\"16@\"NSString\"24@\"NSDictionary\"32@\"NSDictionary\"40@?<v@?>48"

l_OBJC_METH_VAR_TYPE_.151:              ; @OBJC_METH_VAR_TYPE_.151
	.asciz	"v48@0:8@\"UIApplication\"16@\"NSString\"24@\"NSDictionary\"32@?<v@?>40"

l_OBJC_METH_VAR_TYPE_.152:              ; @OBJC_METH_VAR_TYPE_.152
	.asciz	"v56@0:8@\"UIApplication\"16@\"NSString\"24@\"UILocalNotification\"32@\"NSDictionary\"40@?<v@?>48"

l_OBJC_METH_VAR_TYPE_.153:              ; @OBJC_METH_VAR_TYPE_.153
	.asciz	"v40@0:8@\"UIApplication\"16@\"NSDictionary\"24@?<v@?Q>32"

l_OBJC_METH_VAR_TYPE_.154:              ; @OBJC_METH_VAR_TYPE_.154
	.asciz	"v32@0:8@\"UIApplication\"16@?<v@?Q>24"

l_OBJC_METH_VAR_TYPE_.155:              ; @OBJC_METH_VAR_TYPE_.155
	.asciz	"v40@0:8@\"UIApplication\"16@\"UIApplicationShortcutItem\"24@?<v@?B>32"

l_OBJC_METH_VAR_TYPE_.156:              ; @OBJC_METH_VAR_TYPE_.156
	.asciz	"v40@0:8@\"UIApplication\"16@\"NSString\"24@?<v@?>32"

l_OBJC_METH_VAR_TYPE_.157:              ; @OBJC_METH_VAR_TYPE_.157
	.asciz	"v40@0:8@\"UIApplication\"16@\"NSDictionary\"24@?<v@?@\"NSDictionary\">32"

l_OBJC_METH_VAR_TYPE_.158:              ; @OBJC_METH_VAR_TYPE_.158
	.asciz	"@32@0:8@\"UIApplication\"16@\"INIntent\"24"

l_OBJC_METH_VAR_TYPE_.159:              ; @OBJC_METH_VAR_TYPE_.159
	.asciz	"v40@0:8@\"UIApplication\"16@\"INIntent\"24@?<v@?@\"INIntentResponse\">32"

l_OBJC_METH_VAR_TYPE_.160:              ; @OBJC_METH_VAR_TYPE_.160
	.asciz	"Q32@0:8@\"UIApplication\"16@\"UIWindow\"24"

l_OBJC_METH_VAR_TYPE_.161:              ; @OBJC_METH_VAR_TYPE_.161
	.asciz	"B32@0:8@\"UIApplication\"16@\"NSString\"24"

l_OBJC_METH_VAR_TYPE_.162:              ; @OBJC_METH_VAR_TYPE_.162
	.asciz	"@\"UIViewController\"40@0:8@\"UIApplication\"16@\"NSArray\"24@\"NSCoder\"32"

l_OBJC_METH_VAR_TYPE_.163:              ; @OBJC_METH_VAR_TYPE_.163
	.asciz	"B32@0:8@\"UIApplication\"16@\"NSCoder\"24"

l_OBJC_METH_VAR_TYPE_.164:              ; @OBJC_METH_VAR_TYPE_.164
	.asciz	"v32@0:8@\"UIApplication\"16@\"NSCoder\"24"

l_OBJC_METH_VAR_TYPE_.165:              ; @OBJC_METH_VAR_TYPE_.165
	.asciz	"B40@0:8@\"UIApplication\"16@\"NSUserActivity\"24@?<v@?@\"NSArray\">32"

l_OBJC_METH_VAR_TYPE_.166:              ; @OBJC_METH_VAR_TYPE_.166
	.asciz	"v40@0:8@\"UIApplication\"16@\"NSString\"24@\"NSError\"32"

l_OBJC_METH_VAR_TYPE_.167:              ; @OBJC_METH_VAR_TYPE_.167
	.asciz	"v32@0:8@\"UIApplication\"16@\"NSUserActivity\"24"

l_OBJC_METH_VAR_TYPE_.168:              ; @OBJC_METH_VAR_TYPE_.168
	.asciz	"v32@0:8@\"UIApplication\"16@\"CKShareMetadata\"24"

l_OBJC_METH_VAR_TYPE_.169:              ; @OBJC_METH_VAR_TYPE_.169
	.asciz	"@\"UISceneConfiguration\"40@0:8@\"UIApplication\"16@\"UISceneSession\"24@\"UISceneConnectionOptions\"32"

l_OBJC_METH_VAR_TYPE_.170:              ; @OBJC_METH_VAR_TYPE_.170
	.asciz	"v32@0:8@\"UIApplication\"16@\"NSSet\"24"

l_OBJC_METH_VAR_TYPE_.171:              ; @OBJC_METH_VAR_TYPE_.171
	.asciz	"B24@0:8@\"UIApplication\"16"

l_OBJC_METH_VAR_TYPE_.172:              ; @OBJC_METH_VAR_TYPE_.172
	.asciz	"@\"UIWindow\"16@0:8"

l_OBJC_METH_VAR_TYPE_.173:              ; @OBJC_METH_VAR_TYPE_.173
	.asciz	"v24@0:8@\"UIWindow\"16"

	.section	__DATA,__objc_const
	.p2align	3                               ; @"_OBJC_$_PROTOCOL_METHOD_TYPES_UIApplicationDelegate"
__OBJC_$_PROTOCOL_METHOD_TYPES_UIApplicationDelegate:
	.quad	l_OBJC_METH_VAR_TYPE_.136
	.quad	l_OBJC_METH_VAR_TYPE_.137
	.quad	l_OBJC_METH_VAR_TYPE_.137
	.quad	l_OBJC_METH_VAR_TYPE_.136
	.quad	l_OBJC_METH_VAR_TYPE_.136
	.quad	l_OBJC_METH_VAR_TYPE_.138
	.quad	l_OBJC_METH_VAR_TYPE_.139
	.quad	l_OBJC_METH_VAR_TYPE_.140
	.quad	l_OBJC_METH_VAR_TYPE_.136
	.quad	l_OBJC_METH_VAR_TYPE_.136
	.quad	l_OBJC_METH_VAR_TYPE_.136
	.quad	l_OBJC_METH_VAR_TYPE_.141
	.quad	l_OBJC_METH_VAR_TYPE_.142
	.quad	l_OBJC_METH_VAR_TYPE_.143
	.quad	l_OBJC_METH_VAR_TYPE_.143
	.quad	l_OBJC_METH_VAR_TYPE_.144
	.quad	l_OBJC_METH_VAR_TYPE_.145
	.quad	l_OBJC_METH_VAR_TYPE_.146
	.quad	l_OBJC_METH_VAR_TYPE_.147
	.quad	l_OBJC_METH_VAR_TYPE_.148
	.quad	l_OBJC_METH_VAR_TYPE_.149
	.quad	l_OBJC_METH_VAR_TYPE_.150
	.quad	l_OBJC_METH_VAR_TYPE_.151
	.quad	l_OBJC_METH_VAR_TYPE_.152
	.quad	l_OBJC_METH_VAR_TYPE_.153
	.quad	l_OBJC_METH_VAR_TYPE_.154
	.quad	l_OBJC_METH_VAR_TYPE_.155
	.quad	l_OBJC_METH_VAR_TYPE_.156
	.quad	l_OBJC_METH_VAR_TYPE_.157
	.quad	l_OBJC_METH_VAR_TYPE_.136
	.quad	l_OBJC_METH_VAR_TYPE_.158
	.quad	l_OBJC_METH_VAR_TYPE_.159
	.quad	l_OBJC_METH_VAR_TYPE_.136
	.quad	l_OBJC_METH_VAR_TYPE_.136
	.quad	l_OBJC_METH_VAR_TYPE_.136
	.quad	l_OBJC_METH_VAR_TYPE_.136
	.quad	l_OBJC_METH_VAR_TYPE_.160
	.quad	l_OBJC_METH_VAR_TYPE_.161
	.quad	l_OBJC_METH_VAR_TYPE_.162
	.quad	l_OBJC_METH_VAR_TYPE_.163
	.quad	l_OBJC_METH_VAR_TYPE_.163
	.quad	l_OBJC_METH_VAR_TYPE_.164
	.quad	l_OBJC_METH_VAR_TYPE_.164
	.quad	l_OBJC_METH_VAR_TYPE_.163
	.quad	l_OBJC_METH_VAR_TYPE_.163
	.quad	l_OBJC_METH_VAR_TYPE_.161
	.quad	l_OBJC_METH_VAR_TYPE_.165
	.quad	l_OBJC_METH_VAR_TYPE_.166
	.quad	l_OBJC_METH_VAR_TYPE_.167
	.quad	l_OBJC_METH_VAR_TYPE_.168
	.quad	l_OBJC_METH_VAR_TYPE_.169
	.quad	l_OBJC_METH_VAR_TYPE_.170
	.quad	l_OBJC_METH_VAR_TYPE_.171
	.quad	l_OBJC_METH_VAR_TYPE_.172
	.quad	l_OBJC_METH_VAR_TYPE_.173

	.private_extern	__OBJC_PROTOCOL_$_UIApplicationDelegate ; @"_OBJC_PROTOCOL_$_UIApplicationDelegate"
	.section	__DATA,__data
	.globl	__OBJC_PROTOCOL_$_UIApplicationDelegate
	.weak_definition	__OBJC_PROTOCOL_$_UIApplicationDelegate
	.p2align	3
__OBJC_PROTOCOL_$_UIApplicationDelegate:
	.quad	0
	.quad	l_OBJC_CLASS_NAME_.21
	.quad	__OBJC_$_PROTOCOL_REFS_UIApplicationDelegate
	.quad	0
	.quad	0
	.quad	__OBJC_$_PROTOCOL_INSTANCE_METHODS_OPT_UIApplicationDelegate
	.quad	0
	.quad	__OBJC_$_PROP_LIST_UIApplicationDelegate
	.long	96                              ; 0x60
	.long	0                               ; 0x0
	.quad	__OBJC_$_PROTOCOL_METHOD_TYPES_UIApplicationDelegate
	.quad	0
	.quad	0

	.private_extern	__OBJC_LABEL_PROTOCOL_$_UIApplicationDelegate ; @"_OBJC_LABEL_PROTOCOL_$_UIApplicationDelegate"
	.section	__DATA,__objc_protolist,coalesced,no_dead_strip
	.globl	__OBJC_LABEL_PROTOCOL_$_UIApplicationDelegate
	.weak_definition	__OBJC_LABEL_PROTOCOL_$_UIApplicationDelegate
	.p2align	3
__OBJC_LABEL_PROTOCOL_$_UIApplicationDelegate:
	.quad	__OBJC_PROTOCOL_$_UIApplicationDelegate

	.section	__DATA,__objc_const
	.p2align	3                               ; @"_OBJC_CLASS_PROTOCOLS_$_AppDelegate"
__OBJC_CLASS_PROTOCOLS_$_AppDelegate:
	.quad	1                               ; 0x1
	.quad	__OBJC_PROTOCOL_$_UIApplicationDelegate
	.quad	0

	.p2align	3                               ; @"_OBJC_METACLASS_RO_$_AppDelegate"
__OBJC_METACLASS_RO_$_AppDelegate:
	.long	405                             ; 0x195
	.long	40                              ; 0x28
	.long	40                              ; 0x28
	.space	4
	.quad	0
	.quad	l_OBJC_CLASS_NAME_
	.quad	0
	.quad	__OBJC_CLASS_PROTOCOLS_$_AppDelegate
	.quad	0
	.quad	0
	.quad	0

	.private_extern	_OBJC_METACLASS_$_AppDelegate ; @"OBJC_METACLASS_$_AppDelegate"
	.section	__DATA,__objc_data
	.globl	_OBJC_METACLASS_$_AppDelegate
	.p2align	3
_OBJC_METACLASS_$_AppDelegate:
	.quad	_OBJC_METACLASS_$_NSObject@AUTH(da,27361,addr)
	.quad	_OBJC_METACLASS_$_UIResponder@AUTH(da,46507,addr)
	.quad	__objc_empty_cache
	.quad	0
	.quad	__OBJC_METACLASS_RO_$_AppDelegate

	.section	__TEXT,__objc_classname,cstring_literals
l_OBJC_CLASS_NAME_.174:                 ; @OBJC_CLASS_NAME_.174
	.asciz	"\001"

	.section	__TEXT,__objc_methname,cstring_literals
l_OBJC_METH_VAR_NAME_.175:              ; @OBJC_METH_VAR_NAME_.175
	.asciz	".cxx_destruct"

	.section	__TEXT,__objc_methtype,cstring_literals
l_OBJC_METH_VAR_TYPE_.176:              ; @OBJC_METH_VAR_TYPE_.176
	.asciz	"v16@0:8"

	.section	__DATA,__objc_const
	.p2align	3                               ; @"_OBJC_$_INSTANCE_METHODS_AppDelegate"
__OBJC_$_INSTANCE_METHODS_AppDelegate:
	.long	24                              ; 0x18
	.long	9                               ; 0x9
	.quad	l_OBJC_METH_VAR_NAME_.66
	.quad	l_OBJC_METH_VAR_TYPE_.65
	.quad	"-[AppDelegate application:didFinishLaunchingWithOptions:]"@AUTH(ia,0,addr)
	.quad	l_OBJC_METH_VAR_NAME_.68
	.quad	l_OBJC_METH_VAR_TYPE_.63
	.quad	"-[AppDelegate applicationWillResignActive:]"@AUTH(ia,0,addr)
	.quad	l_OBJC_METH_VAR_NAME_.107
	.quad	l_OBJC_METH_VAR_TYPE_.63
	.quad	"-[AppDelegate applicationDidEnterBackground:]"@AUTH(ia,0,addr)
	.quad	l_OBJC_METH_VAR_NAME_.108
	.quad	l_OBJC_METH_VAR_TYPE_.63
	.quad	"-[AppDelegate applicationWillEnterForeground:]"@AUTH(ia,0,addr)
	.quad	l_OBJC_METH_VAR_NAME_.67
	.quad	l_OBJC_METH_VAR_TYPE_.63
	.quad	"-[AppDelegate applicationDidBecomeActive:]"@AUTH(ia,0,addr)
	.quad	l_OBJC_METH_VAR_NAME_.75
	.quad	l_OBJC_METH_VAR_TYPE_.63
	.quad	"-[AppDelegate applicationWillTerminate:]"@AUTH(ia,0,addr)
	.quad	l_OBJC_METH_VAR_NAME_.132
	.quad	l_OBJC_METH_VAR_TYPE_.27
	.quad	"-[AppDelegate window]"@AUTH(ia,0,addr)
	.quad	l_OBJC_METH_VAR_NAME_.133
	.quad	l_OBJC_METH_VAR_TYPE_.63
	.quad	"-[AppDelegate setWindow:]"@AUTH(ia,0,addr)
	.quad	l_OBJC_METH_VAR_NAME_.175
	.quad	l_OBJC_METH_VAR_TYPE_.176
	.quad	"-[AppDelegate .cxx_destruct]"@AUTH(ia,0,addr)

	.section	__TEXT,__objc_methname,cstring_literals
l_OBJC_METH_VAR_NAME_.177:              ; @OBJC_METH_VAR_NAME_.177
	.asciz	"_window"

	.section	__TEXT,__objc_methtype,cstring_literals
l_OBJC_METH_VAR_TYPE_.178:              ; @OBJC_METH_VAR_TYPE_.178
	.asciz	"@\"UIWindow\""

	.section	__DATA,__objc_const
	.p2align	3                               ; @"_OBJC_$_INSTANCE_VARIABLES_AppDelegate"
__OBJC_$_INSTANCE_VARIABLES_AppDelegate:
	.long	32                              ; 0x20
	.long	1                               ; 0x1
	.quad	_OBJC_IVAR_$_AppDelegate._window
	.quad	l_OBJC_METH_VAR_NAME_.177
	.quad	l_OBJC_METH_VAR_TYPE_.178
	.long	3                               ; 0x3
	.long	8                               ; 0x8

	.section	__TEXT,__objc_methname,cstring_literals
l_OBJC_PROP_NAME_ATTR_.179:             ; @OBJC_PROP_NAME_ATTR_.179
	.asciz	"T@\"UIWindow\",&,N,V_window"

	.section	__DATA,__objc_const
	.p2align	3                               ; @"_OBJC_$_PROP_LIST_AppDelegate"
__OBJC_$_PROP_LIST_AppDelegate:
	.long	16                              ; 0x10
	.long	5                               ; 0x5
	.quad	l_OBJC_PROP_NAME_ATTR_.134
	.quad	l_OBJC_PROP_NAME_ATTR_.179
	.quad	l_OBJC_PROP_NAME_ATTR_
	.quad	l_OBJC_PROP_NAME_ATTR_.54
	.quad	l_OBJC_PROP_NAME_ATTR_.55
	.quad	l_OBJC_PROP_NAME_ATTR_.56
	.quad	l_OBJC_PROP_NAME_ATTR_.57
	.quad	l_OBJC_PROP_NAME_ATTR_.58
	.quad	l_OBJC_PROP_NAME_ATTR_.59
	.quad	l_OBJC_PROP_NAME_ATTR_.58

	.p2align	3                               ; @"_OBJC_CLASS_RO_$_AppDelegate"
__OBJC_CLASS_RO_$_AppDelegate:
	.long	404                             ; 0x194
	.long	8                               ; 0x8
	.long	16                              ; 0x10
	.space	4
	.quad	l_OBJC_CLASS_NAME_.174
	.quad	l_OBJC_CLASS_NAME_
	.quad	__OBJC_$_INSTANCE_METHODS_AppDelegate@AUTH(da,49936,addr)
	.quad	__OBJC_CLASS_PROTOCOLS_$_AppDelegate
	.quad	__OBJC_$_INSTANCE_VARIABLES_AppDelegate
	.quad	0
	.quad	__OBJC_$_PROP_LIST_AppDelegate

	.private_extern	_OBJC_CLASS_$_AppDelegate ; @"OBJC_CLASS_$_AppDelegate"
	.section	__DATA,__objc_data
	.globl	_OBJC_CLASS_$_AppDelegate
	.p2align	3
_OBJC_CLASS_$_AppDelegate:
	.quad	_OBJC_METACLASS_$_AppDelegate@AUTH(da,27361,addr)
	.quad	_OBJC_CLASS_$_UIResponder@AUTH(da,46507,addr)
	.quad	__objc_empty_cache
	.quad	0
	.quad	__OBJC_CLASS_RO_$_AppDelegate

	.section	__DATA,__objc_classlist,regular,no_dead_strip
	.p2align	3                               ; @"OBJC_LABEL_CLASS_$"
l_OBJC_LABEL_CLASS_$:
	.quad	_OBJC_CLASS_$_AppDelegate

	.section	__LLVM,__bitcode
l_llvm.embedded.module:                 ; @llvm.embedded.module
	.byte	0

	.section	__LLVM,__cmdline
l_llvm.cmdline:                         ; @llvm.cmdline
	.asciz	"-cc1\000-triple\000arm64e-apple-ios12.0.0\000-S\000-disable-free\000-disable-llvm-verifier\000-discard-value-names\000-main-file-name\000AppDelegate.m\000-mrelocation-model\000pic\000-pic-level\0002\000-mframe-pointer=non-leaf\000-fno-strict-return\000-fno-rounding-math\000-munwind-tables\000-target-sdk-version=15.0\000-fvisibility-inlines-hidden-static-local-var\000-fptrauth-abi-version=0\000-fptrauth-returns\000-fptrauth-intrinsics\000-fptrauth-calls\000-fptrauth-indirect-gotos\000-fptrauth-auth-traps\000-fptrauth-objc-isa-mode=sign-and-strip\000-target-cpu\000apple-a12\000-target-feature\000+v8.3a\000-target-feature\000+fp-armv8\000-target-feature\000+neon\000-target-feature\000+crc\000-target-feature\000+crypto\000-target-feature\000+fullfp16\000-target-feature\000+ras\000-target-feature\000+lse\000-target-feature\000+rdm\000-target-feature\000+rcpc\000-target-feature\000+zcm\000-target-feature\000+zcz\000-target-feature\000+sha2\000-target-feature\000+aes\000-target-abi\000darwinpcs\000-fallow-half-arguments-and-returns\000-dwarf-ext-refs\000-fmodule-format=obj\000-debug-info-kind=standalone\000-dwarf-version=4\000-debugger-tuning=lldb\000-target-linker-version\000705\000-resource-dir\000/Applications/Xcode-beta.app/Contents/Developer/Toolchains/XcodeDefault.xctoolchain/usr/lib/clang/13.0.0\000-dependency-file\000/Users/xss/Library/Developer/Xcode/DerivedData/dyld_inspector-aiyokovxbbbfxhhczwfbbzptsyqb/Build/Intermediates.noindex/dyld_inspector.build/Release-iphoneos/dyld_inspector.build/Objects-normal/arm64e/AppDelegate.d\000-skip-unused-modulemap-deps\000-MT\000dependencies\000-isysroot\000/Applications/Xcode-beta.app/Contents/Developer/Platforms/iPhoneOS.platform/Developer/SDKs/iPhoneOS15.0.sdk\000-iquote\000/Users/xss/Library/Developer/Xcode/DerivedData/dyld_inspector-aiyokovxbbbfxhhczwfbbzptsyqb/Build/Intermediates.noindex/dyld_inspector.build/Release-iphoneos/dyld_inspector.build/dyld_inspector-generated-files.hmap\000-iquote\000/Users/xss/Library/Developer/Xcode/DerivedData/dyld_inspector-aiyokovxbbbfxhhczwfbbzptsyqb/Build/Intermediates.noindex/dyld_inspector.build/Release-iphoneos/dyld_inspector.build/dyld_inspector-project-headers.hmap\000-D\000NS_BLOCK_ASSERTIONS=1\000-D\000OBJC_OLD_DISPATCH_PROTOTYPES=0\000-I\000/Users/xss/Library/Developer/Xcode/DerivedData/dyld_inspector-aiyokovxbbbfxhhczwfbbzptsyqb/Build/Intermediates.noindex/dyld_inspector.build/Release-iphoneos/dyld_inspector.build/dyld_inspector-own-target-headers.hmap\000-I\000/Users/xss/Library/Developer/Xcode/DerivedData/dyld_inspector-aiyokovxbbbfxhhczwfbbzptsyqb/Build/Intermediates.noindex/dyld_inspector.build/Release-iphoneos/dyld_inspector.build/dyld_inspector-all-target-headers.hmap\000-I\000/Users/xss/Library/Developer/Xcode/DerivedData/dyld_inspector-aiyokovxbbbfxhhczwfbbzptsyqb/Build/Products/Release-iphoneos/include\000-I\000/Users/xss/Library/Developer/Xcode/DerivedData/dyld_inspector-aiyokovxbbbfxhhczwfbbzptsyqb/Build/Intermediates.noindex/dyld_inspector.build/Release-iphoneos/dyld_inspector.build/DerivedSources-normal/arm64e\000-I\000/Users/xss/Library/Developer/Xcode/DerivedData/dyld_inspector-aiyokovxbbbfxhhczwfbbzptsyqb/Build/Intermediates.noindex/dyld_inspector.build/Release-iphoneos/dyld_inspector.build/DerivedSources/arm64e\000-I\000/Users/xss/Library/Developer/Xcode/DerivedData/dyld_inspector-aiyokovxbbbfxhhczwfbbzptsyqb/Build/Intermediates.noindex/dyld_inspector.build/Release-iphoneos/dyld_inspector.build/DerivedSources\000-F/Users/xss/Library/Developer/Xcode/DerivedData/dyld_inspector-aiyokovxbbbfxhhczwfbbzptsyqb/Build/Products/Release-iphoneos\000-internal-isystem\000/Applications/Xcode-beta.app/Contents/Developer/Platforms/iPhoneOS.platform/Developer/SDKs/iPhoneOS15.0.sdk/usr/local/include\000-internal-isystem\000/Applications/Xcode-beta.app/Contents/Developer/Toolchains/XcodeDefault.xctoolchain/usr/lib/clang/13.0.0/include\000-internal-externc-isystem\000/Applications/Xcode-beta.app/Contents/Developer/Platforms/iPhoneOS.platform/Developer/SDKs/iPhoneOS15.0.sdk/usr/include\000-internal-externc-isystem\000/Applications/Xcode-beta.app/Contents/Developer/Toolchains/XcodeDefault.xctoolchain/usr/include\000-Os\000-std=gnu11\000-fdebug-compilation-dir\000dyld_inspector\000-ferror-limit\00019\000-fmacro-backtrace-limit\0000\000-fvisibility\000hidden\000-stack-protector\0001\000-mdarwin-stkchk-strong-link\000-fblocks\000-fencode-extended-block-signature\000-fregister-global-dtors-with-atexit\000-fgnuc-version=4.2.1\000-fmodules\000-fimplicit-module-maps\000-fmodules-cache-path=/Users/xss/Library/Developer/Xcode/DerivedData/ModuleCache.noindex\000-fmodules-prune-interval=86400\000-fmodules-prune-after=345600\000-fbuild-session-timestamp=1626296565727630038\000-fmodules-validate-once-per-build-session\000-fmodules-validate-system-headers\000-fobjc-runtime=ios-12.0.0\000-fobjc-arc\000-fobjc-weak\000-fobjc-exceptions\000-fexceptions\000-fpascal-strings\000-fmax-type-align=16\000-fdiagnostics-show-note-include-stack\000-vectorize-loops\000-vectorize-slp\000-serialize-diagnostic-file\000/Users/xss/Library/Developer/Xcode/DerivedData/dyld_inspector-aiyokovxbbbfxhhczwfbbzptsyqb/Build/Intermediates.noindex/dyld_inspector.build/Release-iphoneos/dyld_inspector.build/Objects-normal/arm64e/AppDelegate.dia\000-clang-vendor-feature=+nullptrToBoolConversion\000-clang-vendor-feature=+messageToSelfInClassMethodIdReturnType\000-clang-vendor-feature=+disableInferNewAvailabilityFromInit\000-clang-vendor-feature=+disableNeonImmediateRangeCheck\000-clang-vendor-feature=+disableNonDependentMemberExprInCurrentInstantiation\000-fno-odr-hash-protocols\000-clang-vendor-feature=+revert09abecef7bbf"

	.no_dead_strip	__OBJC_LABEL_PROTOCOL_$_NSObject
	.no_dead_strip	__OBJC_LABEL_PROTOCOL_$_UIApplicationDelegate
	.no_dead_strip	__OBJC_PROTOCOL_$_NSObject
	.no_dead_strip	__OBJC_PROTOCOL_$_UIApplicationDelegate
	.linker_option "-framework", "UIKit"
	.linker_option "-framework", "FileProvider"
	.linker_option "-framework", "UserNotifications"
	.linker_option "-framework", "CoreText"
	.linker_option "-framework", "QuartzCore"
	.linker_option "-framework", "CoreImage"
	.linker_option "-framework", "ImageIO"
	.linker_option "-framework", "CoreVideo"
	.linker_option "-framework", "OpenGLES"
	.linker_option "-framework", "Metal"
	.linker_option "-framework", "IOSurface"
	.linker_option "-framework", "CoreGraphics"
	.linker_option "-framework", "Foundation"
	.linker_option "-framework", "CFNetwork"
	.linker_option "-framework", "Security"
	.linker_option "-framework", "CoreFoundation"
	.section	__DATA,__objc_imageinfo,regular,no_dead_strip
L_OBJC_IMAGE_INFO:
	.long	0
	.long	64

	.file	6 "/Applications/Xcode-beta.app/Contents/Developer/Platforms/iPhoneOS.platform/Developer/SDKs/iPhoneOS15.0.sdk/usr/include/objc" "objc.h"
	.file	7 "/Applications/Xcode-beta.app/Contents/Developer/Platforms/iPhoneOS.platform/Developer/SDKs/iPhoneOS15.0.sdk/usr/include/arm" "_types.h"
	.file	8 "/Applications/Xcode-beta.app/Contents/Developer/Platforms/iPhoneOS.platform/Developer/SDKs/iPhoneOS15.0.sdk/usr/include/sys/_types" "_ssize_t.h"
	.file	9 "dyld_inspector" "dyld_inspector/dyld_inspector/AppDelegate.m"