	.section	__TEXT,__text,regular,pure_instructions
	.build_version macos, 11, 0	sdk_version 11, 3
	.ptrauth_abi_version 0
	.globl	_write_sprr                     ; -- Begin function write_sprr
	.p2align	2
_write_sprr:                            ; @write_sprr
Lfunc_begin0:
	.file	1 "/Users/xss/example-cryptex/src/test" "s3_4_c15_c10_5-read.c"
	.loc	1 8 0                           ; s3_4_c15_c10_5-read.c:8:0
	.cfi_startproc
; %bb.0:
	sub	sp, sp, #16                     ; =16
	.cfi_def_cfa_offset 16
	str	x0, [sp, #8]
Ltmp1:
	.loc	1 10 43 prologue_end            ; s3_4_c15_c10_5-read.c:10:43
	ldr	x8, [sp, #8]
	.loc	1 9 5                           ; s3_4_c15_c10_5-read.c:9:5
	; InlineAsm Start
	msr	S3_4_C15_C10_5, x8
	isb

	; InlineAsm End
	.loc	1 12 1                          ; s3_4_c15_c10_5-read.c:12:1
	add	sp, sp, #16                     ; =16
	ret
Ltmp2:
Lfunc_end0:
	.cfi_endproc
                                        ; -- End function
	.globl	_read_sprr                      ; -- Begin function read_sprr
	.p2align	2
_read_sprr:                             ; @read_sprr
Lfunc_begin1:
	.loc	1 15 0                          ; s3_4_c15_c10_5-read.c:15:0
	.cfi_startproc
; %bb.0:
	sub	sp, sp, #16                     ; =16
	.cfi_def_cfa_offset 16
Ltmp4:
	.loc	1 17 5 prologue_end             ; s3_4_c15_c10_5-read.c:17:5
	; InlineAsm Start
	isb
	mrs	x8, S3_4_C15_C10_5

	; InlineAsm End
	str	x8, [sp, #8]
	.loc	1 20 12                         ; s3_4_c15_c10_5-read.c:20:12
	ldr	x0, [sp, #8]
	.loc	1 20 5 is_stmt 0                ; s3_4_c15_c10_5-read.c:20:5
	add	sp, sp, #16                     ; =16
	ret
Ltmp5:
Lfunc_end1:
	.cfi_endproc
                                        ; -- End function
	.globl	_main                           ; -- Begin function main
	.p2align	2
_main:                                  ; @main
Lfunc_begin2:
	.loc	1 25 0 is_stmt 1                ; s3_4_c15_c10_5-read.c:25:0
	.cfi_startproc
; %bb.0:
	pacibsp
	sub	sp, sp, #80                     ; =80
	stp	x29, x30, [sp, #64]             ; 16-byte Folded Spill
	add	x29, sp, #64                    ; =64
	.cfi_def_cfa w29, 16
	.cfi_offset w30, -8
	.cfi_offset w29, -16
	stur	wzr, [x29, #-4]
	stur	w0, [x29, #-8]
	stur	x1, [x29, #-16]
Ltmp6:
	.loc	1 26 14 prologue_end            ; s3_4_c15_c10_5-read.c:26:14
	stur	wzr, [x29, #-20]
LBB2_1:                                 ; =>This Inner Loop Header: Depth=1
Ltmp7:
	.loc	1 26 21 is_stmt 0               ; s3_4_c15_c10_5-read.c:26:21
	ldur	w8, [x29, #-20]
Ltmp8:
	.loc	1 26 5                          ; s3_4_c15_c10_5-read.c:26:5
	cmp	w8, #64                         ; =64
	b.ge	LBB2_4
; %bb.2:                                ;   in Loop: Header=BB2_1 Depth=1
Ltmp9:
	.loc	1 28 54 is_stmt 1               ; s3_4_c15_c10_5-read.c:28:54
	ldur	w8, [x29, #-20]
                                        ; implicit-def: $x0
	mov	x0, x8
	str	x0, [sp, #32]                   ; 8-byte Folded Spill
	.loc	1 28 57 is_stmt 0               ; s3_4_c15_c10_5-read.c:28:57
	bl	_read_sprr
	.loc	1 0 0                           ; s3_4_c15_c10_5-read.c:0:0
	adrp	x9, l_.str@PAGE
	add	x9, x9, l_.str@PAGEOFF
	str	x0, [sp, #24]                   ; 8-byte Folded Spill
	.loc	1 28 9                          ; s3_4_c15_c10_5-read.c:28:9
	mov	x0, x9
	mov	x9, sp
	ldr	x10, [sp, #32]                  ; 8-byte Folded Reload
	str	x10, [x9]
	ldr	x11, [sp, #24]                  ; 8-byte Folded Reload
	str	x11, [x9, #8]
	bl	_printf
Ltmp10:
; %bb.3:                                ;   in Loop: Header=BB2_1 Depth=1
	.loc	1 26 29 is_stmt 1               ; s3_4_c15_c10_5-read.c:26:29
	ldur	w8, [x29, #-20]
	add	w8, w8, #1                      ; =1
	stur	w8, [x29, #-20]
	.loc	1 26 5 is_stmt 0                ; s3_4_c15_c10_5-read.c:26:5
	b	LBB2_1
Ltmp11:
LBB2_4:
	.loc	1 30 1 is_stmt 1                ; s3_4_c15_c10_5-read.c:30:1
	ldur	w0, [x29, #-4]
	ldp	x29, x30, [sp, #64]             ; 16-byte Folded Reload
	add	sp, sp, #80                     ; =80
	retab
Ltmp12:
Lfunc_end2:
	.cfi_endproc
                                        ; -- End function
	.section	__TEXT,__cstring,cstring_literals
l_.str:                                 ; @.str
	.asciz	"s3_4_c15_c10_5 bit %02d: %016llx\n"

	.file	2 "/Applications/Xcode.app/Contents/Developer/Platforms/MacOSX.platform/Developer/SDKs/MacOSX.sdk/usr/include/_types" "_uint64_t.h"